(lp0
(lp1
(lp2
F8031.0
aF371.038986573
aF266.847932979
aF554636.0
aF7.9e-05
aa(lp3
F8001.0
aF379.950978294
aF265.078784954
aF363857.0
aF6.6e-05
aa(lp4
F8005.0
aF380.281283151
aF270.268826873
aF487967.0
aF5.9e-05
aaa(lp5
(lp6
F53033.0
aF125.27486023
aF39.1497730391
aF1737034.0
aF5.8e-05
aa(lp7
F41067.0
aF92.2254623376
aF76.2593957841
aF445342.0
aF7.3e-05
aa(lp8
F53011.0
aF104.00046468
aF74.0182527309
aF345238.0
aF6.4e-05
aa(lp9
F41051.0
aF103.293707198
aF79.5194104381
aF660486.0
aF9.3e-05
aa(lp10
F41005.0
aF103.421444616
aF88.318590492
aF338391.0
aF6.6e-05
aaa(lp11
(lp12
F6081.0
aF52.6171444847
aF262.707477827
aF707161.0
aF5.6e-05
aa(lp13
F6075.0
aF52.7404001225
aF254.517429395
aF776733.0
aF8.4e-05
aa(lp14
F6001.0
aF61.782098866
aF259.312457296
aF1443741.0
aF7e-05
aa(lp15
F6085.0
aF63.1509653633
aF270.516712105
aF1682585.0
aF6.3e-05
aa(lp16
F6021.0
aF65.2043358182
aF213.245337355
aF26453.0
aF6.9e-05
aa(lp17
F6101.0
aF74.2003718491
aF229.646592975
aF78930.0
aF5.6e-05
aa(lp18
F6113.0
aF68.2602083189
aF236.862609218
aF168660.0
aF5.9e-05
aa(lp19
F6067.0
aF74.3547338322
aF245.49501455
aF1223499.0
aF6.1e-05
aa(lp20
F6089.0
aF77.359494209
aF188.945068958
aF163256.0
aF5.7e-05
aaa(lp21
(lp22
F26125.0
aF743.036942153
aF192.129690868
aF1194156.0
aF5.7e-05
aa(lp23
F26163.0
aF746.37046732
aF200.570021537
aF2061162.0
aF6.4e-05
aa(lp24
F39035.0
aF776.351457758
aF216.558042612
aF1393978.0
aF5.8e-05
aa(lp25
F54009.0
aF799.221537984
aF240.153315109
aF25447.0
aF7.7e-05
aa(lp26
F42003.0
aF809.003419092
aF233.899638663
aF1281666.0
aF6.1e-05
aaa(lp27
(lp28
F21019.0
aF768.726553092
aF290.270551648
aF49752.0
aF5.8e-05
aa(lp29
F21111.0
aF715.347723878
aF301.167740487
aF693604.0
aF5.9e-05
aa(lp30
F51520.0
aF784.05333332
aF328.847863787
aF17367.0
aF5.6e-05
aa(lp31
F37119.0
aF813.724315147
aF356.853362811
aF695454.0
aF5.6e-05
aa(lp32
F47037.0
aF700.009323976
aF350.107265446
aF569891.0
aF6.1e-05
aa(lp33
F47093.0
aF753.012743594
aF348.235180569
aF382032.0
aF5.6e-05
aa(lp34
F47065.0
aF732.643747577
aF370.017730905
aF307896.0
aF6.1e-05
aa(lp35
F13313.0
aF737.308367745
aF378.040993858
aF83525.0
aF5.6e-05
aa(lp36
F13067.0
aF747.238620236
aF397.293799252
aF607751.0
aF6.4e-05
aa(lp37
F13121.0
aF750.160287596
aF399.907752014
aF816006.0
aF7e-05
aa(lp38
F13089.0
aF754.465443436
aF400.059456026
aF665865.0
aF6.8e-05
aa(lp39
F13247.0
aF758.37864157
aF402.49780372
aF70111.0
aF5.6e-05
aa(lp40
F13063.0
aF752.853876848
aF406.722877803
aF236517.0
aF6.6e-05
aa(lp41
F13151.0
aF756.589546538
aF407.288873768
aF119341.0
aF5.6e-05
aa(lp42
F13135.0
aF758.038826857
aF395.110327675
aF588448.0
aF6.3e-05
aa(lp43
F1015.0
aF723.907941153
aF403.837487318
aF112249.0
aF5.6e-05
aa(lp44
F1073.0
aF704.191210749
aF411.014665198
aF662047.0
aF7.3e-05
aa(lp45
F1117.0
aF709.193528999
aF417.394467797
aF143293.0
aF5.6e-05
aa(lp46
F13215.0
aF745.265661102
aF430.987078939
aF186291.0
aF5.9e-05
aa(lp47
F1113.0
aF740.385154867
aF436.939588695
aF49756.0
aF5.6e-05
aa(lp48
F1101.0
aF720.281573781
aF440.436162917
aF223510.0
aF5.7e-05
aa(lp49
F13245.0
aF796.799727342
aF404.391349655
aF199775.0
aF5.9e-05
aa(lp50
F12073.0
aF762.463896365
aF477.365342219
aF239452.0
aF6.1e-05
aaa(lp51
(lp52
F51820.0
aF837.346467474
aF285.851438947
aF19520.0
aF5.8e-05
aa(lp53
F51680.0
aF835.264653899
aF302.326633095
aF65269.0
aF5.8e-05
aa(lp54
F51770.0
aF821.912162221
aF307.548990323
aF94911.0
aF6.5e-05
aa(lp55
F51775.0
aF820.111751617
aF307.695502162
aF24747.0
aF5.8e-05
aa(lp56
F24005.0
aF871.921241442
aF246.932531615
aF754292.0
aF6.1e-05
aa(lp57
F24510.0
aF872.946822486
aF249.834427518
aF651154.0
aF7.4e-05
aa(lp58
F24027.0
aF867.127763298
aF252.141340019
aF247842.0
aF6e-05
aa(lp59
F24031.0
aF863.180208628
aF255.65657011
aF873341.0
aF6.5e-05
aa(lp60
F11001.0
aF867.470401202
aF260.460974222
aF572059.0
aF7.7e-05
aa(lp61
F51013.0
aF865.681962839
aF261.222875114
aF189453.0
aF7.7e-05
aa(lp62
F51510.0
aF866.572477724
aF262.734686855
aF128283.0
aF6.8e-05
aa(lp63
F51610.0
aF864.078108667
aF261.655667801
aF10377.0
aF6.9e-05
aa(lp64
F51059.0
aF863.064397845
aF262.414412378
aF969749.0
aF5.7e-05
aa(lp65
F24033.0
aF870.786325575
aF261.829970016
aF801515.0
aF6.4e-05
aa(lp66
F51840.0
aF845.843602685
aF258.214178983
aF23585.0
aF7.1e-05
aa(lp67
F51087.0
aF866.389610525
aF292.780704494
aF262300.0
aF6.3e-05
aa(lp68
F51760.0
aF865.424050159
aF293.735963553
aF197790.0
aF8.6e-05
aa(lp69
F51570.0
aF868.048530719
aF299.360459202
aF16897.0
aF5.6e-05
aa(lp70
F36103.0
aF929.241649488
aF199.278463003
aF1419369.0
aF6.3e-05
aa(lp71
F36059.0
aF917.384980291
aF205.43647538
aF1334544.0
aF7.6e-05
aa(lp72
F34031.0
aF904.161746346
aF201.712206531
aF489049.0
aF6.3e-05
aa(lp73
F34003.0
aF907.896066895
aF202.302470427
aF884118.0
aF6.9e-05
aa(lp74
F34013.0
aF906.236730753
aF206.977429459
aF793633.0
aF7.1e-05
aa(lp75
F34017.0
aF909.08042421
aF207.462937763
aF608975.0
aF9.1e-05
aa(lp76
F34039.0
aF905.587082153
aF210.045085725
aF522541.0
aF7.3e-05
aa(lp77
F36085.0
aF908.749199508
aF211.307161341
aF443728.0
aF7e-05
aa(lp78
F36005.0
aF912.315497328
aF203.674106811
aF1332650.0
aF0.00011
aa(lp79
F36061.0
aF911.072622034
aF205.783086757
aF1537195.0
aF0.00015
aa(lp80
F36081.0
aF913.462051588
aF207.615750359
aF2229379.0
aF8.9e-05
aa(lp81
F36047.0
aF911.595580089
aF208.928374072
aF2465326.0
aF9.8e-05
aa(lp82
F34023.0
aF904.976453741
aF215.001458637
aF750162.0
aF5.9e-05
aa(lp83
F36119.0
aF912.141547823
aF196.592589736
aF923459.0
aF6.5e-05
aa(lp84
F42101.0
aF894.72914873
aF227.900547575
aF1517550.0
aF5.8e-05
aa(lp85
F34007.0
aF899.061431482
aF232.054232622
aF508932.0
aF5.7e-05
aa(lp86
F9003.0
aF925.917212741
aF177.152290276
aF857183.0
aF5.7e-05
aa(lp87
F25017.0
aF943.405755498
aF156.504310828
aF1465396.0
aF5.6e-05
aa(lp88
F25025.0
aF950.299079197
aF158.007070966
aF689807.0
aF7e-05
aaa(lp89
(lp90
F28027.0
aF631.700027283
aF400.68741948
aF30622.0
aF6e-05
aa(lp91
F28159.0
aF663.514261498
aF425.274137823
aF20160.0
aF5.9e-05
aa(lp92
F28049.0
aF638.051593606
aF445.785870317
aF250800.0
aF6e-05
aa(lp93
F22071.0
aF651.338581076
aF496.465402252
aF484674.0
aF6.4e-05
aa(lp94
F22017.0
aF570.826412839
aF442.202574191
aF252161.0
aF6.2e-05
aa(lp95
F48245.0
aF565.746895809
aF504.541799993
aF252051.0
aF5.7e-05
aa(lp96
F48201.0
aF540.54731652
aF504.62993865
aF3400578.0
aF6e-05
aaa(lp97
(lp98
F27123.0
aF576.516685202
aF151.219277482
aF511035.0
aF5.6e-05
aa(lp99
F27053.0
aF570.131597541
aF151.403325043
aF1116200.0
aF5.8e-05
aa(lp100
F31109.0
aF516.78216337
aF250.188023316
aF250291.0
aF6.1e-05
aa(lp101
F31055.0
aF525.799353573
aF238.14275337
aF463585.0
aF6.2e-05
aa(lp102
F55079.0
aF664.855000617
aF192.484141264
aF940164.0
aF7.4e-05
aa(lp103
F17031.0
aF668.978975824
aF219.400257219
aF5376741.0
aF6.1e-05
aa(lp104
F19163.0
aF621.490118929
aF227.666851619
aF158668.0
aF5.6e-05
aa(lp105
F29510.0
aF632.327321169
aF297.184524592
aF348189.0
aF6.9e-05
aa(lp106
F29189.0
aF629.170659449
aF297.571839563
aF1016315.0
aF6e-05
aaa(lp107
(lp108
F6039.0
aF97.2145136451
aF278.975077449
aF123109.0
aF6e-05
aa(lp109
F6019.0
aF95.6093812211
aF290.162708843
aF799407.0
aF6.4e-05
aa(lp110
F6107.0
aF108.085024898
aF306.351832438
aF368021.0
aF5.8e-05
aa(lp111
F6029.0
aF103.787886113
aF326.006585349
aF661645.0
aF9.7e-05
aa(lp112
F6083.0
aF76.0382837186
aF340.420376302
aF399347.0
aF6.4e-05
aa(lp113
F6111.0
aF93.4973310868
aF344.590570899
aF753197.0
aF5.8e-05
aa(lp114
F6037.0
aF105.369854549
aF359.050126004
aF9519338.0
aF0.00011
aa(lp115
F6059.0
aF113.997715586
aF368.503452566
aF2846289.0
aF9.8e-05
aa(lp116
F6071.0
aF148.402461892
aF350.061039619
aF1709434.0
aF7.7e-05
aa(lp117
F6065.0
aF146.410389633
aF374.21707964
aF1545387.0
aF6.1e-05
aa(lp118
F6025.0
aF156.397958859
aF393.161127277
aF142361.0
aF5.6e-05
aa(lp119
F6073.0
aF129.2075529
aF387.064888184
aF2813833.0
aF6.6e-05
aa(lp120
F4013.0
aF214.128077618
aF396.893960776
aF3072149.0
aF6.8e-05
aaa.