(lp0
(lp1
(lp2
F4013.0
aF214.128077618
aF396.893960776
aF3072149.0
aF6.8e-05
aaa(lp3
(lp4
F48003.0
aF398.962651077
aF443.958242671
aF13004.0
aF5.3e-05
aaa(lp5
(lp6
F27003.0
aF573.942484199
aF145.118314377
aF298084.0
aF4.6e-05
aa(lp7
F27123.0
aF576.516685202
aF151.219277482
aF511035.0
aF5.6e-05
aa(lp8
F27053.0
aF570.131597541
aF151.403325043
aF1116200.0
aF5.8e-05
aaa(lp9
(lp10
F8001.0
aF379.950978294
aF265.078784954
aF363857.0
aF6.6e-05
aa(lp11
F8005.0
aF380.281283151
aF270.268826873
aF487967.0
aF5.9e-05
aa(lp12
F8059.0
aF364.301409054
aF270.903209636
aF527056.0
aF5.5e-05
aa(lp13
F8031.0
aF371.038986573
aF266.847932979
aF554636.0
aF7.9e-05
aaa(lp14
(lp15
F12071.0
aF822.736368501
aF559.319167615
aF440888.0
aF4.7e-05
aa(lp16
F12099.0
aF852.886370359
aF552.951546188
aF1131184.0
aF5.1e-05
aa(lp17
F12011.0
aF854.318125011
aF564.174521982
aF1623018.0
aF5e-05
aa(lp18
F12086.0
aF855.717845944
aF576.450702277
aF2253362.0
aF4.9e-05
aaa(lp19
(lp20
F6089.0
aF77.359494209
aF188.945068958
aF163256.0
aF5.7e-05
aa(lp21
F6021.0
aF65.2043358182
aF213.245337355
aF26453.0
aF6.9e-05
aa(lp22
F6007.0
aF79.7767444918
aF214.910128237
aF203171.0
aF4.7e-05
aa(lp23
F6115.0
aF81.8982358215
aF225.444950413
aF60219.0
aF4.9e-05
aa(lp24
F6101.0
aF74.2003718491
aF229.646592975
aF78930.0
aF5.6e-05
aa(lp25
F6061.0
aF90.0298511972
aF233.575536165
aF248399.0
aF5.2e-05
aa(lp26
F6075.0
aF52.7404001225
aF254.517429395
aF776733.0
aF8.4e-05
aa(lp27
F6081.0
aF52.6171444847
aF262.707477827
aF707161.0
aF5.6e-05
aa(lp28
F6013.0
aF62.7064814493
aF253.075658488
aF948816.0
aF5e-05
aa(lp29
F6001.0
aF61.782098866
aF259.312457296
aF1443741.0
aF7e-05
aa(lp30
F6085.0
aF63.1509653633
aF270.516712105
aF1682585.0
aF6.3e-05
aa(lp31
F6077.0
aF74.1740312349
aF256.485831492
aF563598.0
aF5.2e-05
aa(lp32
F6099.0
aF77.5948233373
aF265.302047042
aF446997.0
aF5.1e-05
aa(lp33
F6047.0
aF80.1217093401
aF275.749681794
aF210554.0
aF4.7e-05
aa(lp34
F6113.0
aF68.2602083189
aF236.862609218
aF168660.0
aF5.9e-05
aa(lp35
F6095.0
aF64.1452346104
aF245.330036641
aF394542.0
aF4.6e-05
aa(lp36
F6067.0
aF74.3547338322
aF245.49501455
aF1223499.0
aF6.1e-05
aaa(lp37
(lp38
F13095.0
aF761.086378978
aF451.967184234
aF96065.0
aF4.9e-05
aa(lp39
F13087.0
aF755.693541123
aF468.194002931
aF28240.0
aF4.9e-05
aa(lp40
F13275.0
aF768.884153625
aF466.608446685
aF42737.0
aF5.5e-05
aa(lp41
F12065.0
aF770.707334208
aF476.851119419
aF12902.0
aF4.7e-05
aa(lp42
F12073.0
aF762.463896365
aF477.365342219
aF239452.0
aF6.1e-05
aa(lp43
F12031.0
aF815.145119735
aF473.114295395
aF778879.0
aF4.9e-05
aa(lp44
F12019.0
aF812.760924762
aF481.531359294
aF140814.0
aF4.6e-05
aa(lp45
F12023.0
aF796.544243535
aF477.588016437
aF56513.0
aF5e-05
aa(lp46
F12117.0
aF829.684398031
aF508.399477043
aF365196.0
aF4.9e-05
aa(lp47
F12095.0
aF828.477422871
aF512.999289781
aF896344.0
aF5.2e-05
aa(lp48
F12057.0
aF810.083518173
aF529.957501469
aF998948.0
aF4.7e-05
aaa(lp49
(lp50
F6039.0
aF97.2145136451
aF278.975077449
aF123109.0
aF6e-05
aa(lp51
F6019.0
aF95.6093812211
aF290.162708843
aF799407.0
aF6.4e-05
aa(lp52
F6031.0
aF89.2713893096
aF304.772281089
aF129461.0
aF5.1e-05
aa(lp53
F6107.0
aF108.085024898
aF306.351832438
aF368021.0
aF5.8e-05
aa(lp54
F6029.0
aF103.787886113
aF326.006585349
aF661645.0
aF9.7e-05
aa(lp55
F6027.0
aF136.048381588
aF306.102582286
aF17945.0
aF5.3e-05
aa(lp56
F6083.0
aF76.0382837186
aF340.420376302
aF399347.0
aF6.4e-05
aa(lp57
F6111.0
aF93.4973310868
aF344.590570899
aF753197.0
aF5.8e-05
aa(lp58
F6037.0
aF105.369854549
aF359.050126004
aF9519338.0
aF0.00011
aa(lp59
F6059.0
aF113.997715586
aF368.503452566
aF2846289.0
aF9.8e-05
aa(lp60
F32003.0
aF178.153492162
aF324.160586278
aF1375765.0
aF4.9e-05
aa(lp61
F6065.0
aF146.410389633
aF374.21707964
aF1545387.0
aF6.1e-05
aa(lp62
F6025.0
aF156.397958859
aF393.161127277
aF142361.0
aF5.6e-05
aa(lp63
F6073.0
aF129.2075529
aF387.064888184
aF2813833.0
aF6.6e-05
aa(lp64
F6071.0
aF148.402461892
aF350.061039619
aF1709434.0
aF7.7e-05
aaa(lp65
(lp66
F48085.0
aF517.70778434
aF427.895646823
aF491675.0
aF4.8e-05
aa(lp67
F48439.0
aF503.673815634
aF437.477028749
aF1446219.0
aF5e-05
aa(lp68
F48113.0
aF513.657901701
aF437.682966844
aF2218899.0
aF5.4e-05
aa(lp69
F22015.0
aF575.844790614
aF439.774115304
aF98310.0
aF4.9e-05
aa(lp70
F22017.0
aF570.826412839
aF442.202574191
aF252161.0
aF6.2e-05
aa(lp71
F48203.0
aF560.270010669
aF442.325574621
aF62110.0
aF5e-05
aa(lp72
F48183.0
aF552.333188086
aF444.322743975
aF111379.0
aF5.5e-05
aa(lp73
F48365.0
aF562.161603376
aF451.397747537
aF22756.0
aF4.8e-05
aa(lp74
F48423.0
aF542.731029941
aF446.457985602
aF174706.0
aF4.7e-05
aa(lp75
F48041.0
aF522.88823653
aF487.351397054
aF152415.0
aF4.6e-05
aa(lp76
F48201.0
aF540.54731652
aF504.62993865
aF3400578.0
aF6e-05
aa(lp77
F48157.0
aF533.434165736
aF513.008691943
aF354452.0
aF4.6e-05
aa(lp78
F48361.0
aF571.064681764
aF498.867855628
aF84966.0
aF4.6e-05
aa(lp79
F48245.0
aF565.746895809
aF504.541799993
aF252051.0
aF5.7e-05
aa(lp80
F48453.0
aF493.032076052
aF493.597339677
aF812280.0
aF5.2e-05
aa(lp81
F48029.0
aF477.886663525
aF514.095891984
aF1392931.0
aF5e-05
aaa(lp82
(lp83
F53033.0
aF125.27486023
aF39.1497730391
aF1737034.0
aF5.8e-05
aa(lp84
F41067.0
aF92.2254623376
aF76.2593957841
aF445342.0
aF7.3e-05
aa(lp85
F53011.0
aF104.00046468
aF74.0182527309
aF345238.0
aF6.4e-05
aa(lp86
F41051.0
aF103.293707198
aF79.5194104381
aF660486.0
aF9.3e-05
aa(lp87
F41005.0
aF103.421444616
aF88.318590492
aF338391.0
aF6.6e-05
aa(lp88
F41047.0
aF97.399304684
aF93.4988892144
aF284834.0
aF4.8e-05
aa(lp89
F41029.0
aF78.4141193387
aF147.629027207
aF181269.0
aF5.1e-05
aaa(lp90
(lp91
F36029.0
aF820.38582573
aF177.013330392
aF950265.0
aF5e-05
aa(lp92
F26099.0
aF750.610280372
aF190.468671453
aF788149.0
aF5.1e-05
aa(lp93
F26125.0
aF743.036942153
aF192.129690868
aF1194156.0
aF5.7e-05
aa(lp94
F26163.0
aF746.37046732
aF200.570021537
aF2061162.0
aF6.4e-05
aa(lp95
F39095.0
aF742.473618138
aF216.811437951
aF455054.0
aF4.6e-05
aa(lp96
F39035.0
aF776.351457758
aF216.558042612
aF1393978.0
aF5.8e-05
aa(lp97
F42003.0
aF809.003419092
aF233.899638663
aF1281666.0
aF6.1e-05
aa(lp98
F54009.0
aF799.221537984
aF240.153315109
aF25447.0
aF7.7e-05
aa(lp99
F39049.0
aF758.062157993
aF253.603273009
aF1068978.0
aF5.2e-05
aa(lp100
F39087.0
aF770.625409557
aF283.93917465
aF62319.0
aF4.6e-05
aa(lp101
F21019.0
aF768.726553092
aF290.270551648
aF49752.0
aF5.8e-05
aa(lp102
F54039.0
aF789.786928856
aF287.714693693
aF200073.0
aF4.8e-05
aa(lp103
F18097.0
aF703.47637833
aF264.614798668
aF860454.0
aF4.8e-05
aa(lp104
F39017.0
aF731.844357783
aF269.494670001
aF332807.0
aF4.9e-05
aa(lp105
F39061.0
aF733.263799261
aF275.315430247
aF845303.0
aF5.4e-05
aa(lp106
F21117.0
aF734.066615163
aF281.167681124
aF151464.0
aF5e-05
aa(lp107
F21111.0
aF715.347723878
aF301.167740487
aF693604.0
aF5.9e-05
aa(lp108
F21067.0
aF738.000675961
aF302.005037855
aF260512.0
aF4.8e-05
aaa(lp109
(lp110
F47053.0
aF660.602484901
aF357.318624524
aF48152.0
aF4.6e-05
aa(lp111
F47157.0
aF643.395763039
aF378.031744605
aF897472.0
aF5.5e-05
aa(lp112
F28033.0
aF642.267628251
aF384.839249499
aF107199.0
aF4.6e-05
aa(lp113
F28027.0
aF631.700027283
aF400.68741948
aF30622.0
aF6e-05
aa(lp114
F28043.0
aF647.649972548
aF410.394464547
aF23263.0
aF4.7e-05
aa(lp115
F5139.0
aF595.14987863
aF427.226433206
aF45629.0
aF5.4e-05
aa(lp116
F5119.0
aF598.676543754
aF389.524749021
aF361474.0
aF5.3e-05
aa(lp117
F28087.0
aF674.418402473
aF415.122758999
aF61586.0
aF4.6e-05
aa(lp118
F28159.0
aF663.514261498
aF425.274137823
aF20160.0
aF5.9e-05
aa(lp119
F28075.0
aF672.167227537
aF440.608524349
aF78161.0
aF4.6e-05
aa(lp120
F28089.0
aF644.644674143
aF437.339606833
aF74674.0
aF4.6e-05
aa(lp121
F28121.0
aF647.272159578
aF445.553667274
aF115327.0
aF4.8e-05
aa(lp122
F28049.0
aF638.051593606
aF445.785870317
aF250800.0
aF6e-05
aa(lp123
F28035.0
aF662.340841725
aF469.562070989
aF72604.0
aF5e-05
aa(lp124
F22121.0
aF622.795050771
aF488.85623181
aF21601.0
aF5.2e-05
aa(lp125
F22047.0
aF621.964681856
aF493.299089267
aF33320.0
aF4.7e-05
aa(lp126
F22033.0
aF627.532921181
aF486.959525017
aF412852.0
aF5.3e-05
aa(lp127
F22095.0
aF639.022908787
aF496.564276607
aF43044.0
aF5.1e-05
aa(lp128
F22071.0
aF651.338581076
aF496.465402252
aF484674.0
aF6.4e-05
aa(lp129
F22051.0
aF647.254240096
aF504.485538044
aF455466.0
aF4.6e-05
aaa(lp130
(lp131
F29183.0
aF625.995955203
aF293.938397646
aF283883.0
aF4.7e-05
aa(lp132
F29510.0
aF632.327321169
aF297.184524592
aF348189.0
aF6.9e-05
aa(lp133
F29189.0
aF629.170659449
aF297.571839563
aF1016315.0
aF6e-05
aa(lp134
F55009.0
aF661.295442891
aF158.436859333
aF226778.0
aF5.2e-05
aa(lp135
F55087.0
aF653.76289252
aF160.48762926
aF160971.0
aF4.6e-05
aa(lp136
F55079.0
aF664.855000617
aF192.484141264
aF940164.0
aF7.4e-05
aa(lp137
F55133.0
aF659.073603882
aF192.731818115
aF360767.0
aF4.9e-05
aa(lp138
F55025.0
aF640.259029023
aF193.059886956
aF426526.0
aF5.2e-05
aa(lp139
F17201.0
aF645.722085
aF209.852492823
aF278418.0
aF4.8e-05
aa(lp140
F17031.0
aF668.978975824
aF219.400257219
aF5376741.0
aF6.1e-05
aa(lp141
F17043.0
aF664.97964782
aF219.666485923
aF904161.0
aF5.1e-05
aa(lp142
F18089.0
aF677.840033419
aF228.268571284
aF484564.0
aF4.8e-05
aa(lp143
F19013.0
aF591.836020306
aF209.588448378
aF128012.0
aF4.6e-05
aa(lp144
F19153.0
aF570.801738263
aF228.668095362
aF374601.0
aF5.2e-05
aa(lp145
F19163.0
aF621.490118929
aF227.666851619
aF158668.0
aF5.6e-05
aa(lp146
F17161.0
aF623.059973539
aF231.112598464
aF149374.0
aF5e-05
aa(lp147
F19057.0
aF612.882010424
aF244.949915243
aF42351.0
aF5.1e-05
aaa(lp148
(lp149
F45083.0
aF793.239375577
aF367.754402204
aF253791.0
aF4.8e-05
aa(lp150
F45045.0
aF785.676714035
aF369.542097768
aF379616.0
aF5.2e-05
aa(lp151
F45007.0
aF782.226804679
aF379.132979851
aF165740.0
aF4.6e-05
aa(lp152
F45079.0
aF816.541641816
aF385.156707247
aF320677.0
aF5.4e-05
aa(lp153
F45063.0
aF810.799412401
aF389.504491524
aF216014.0
aF4.8e-05
aa(lp154
F45003.0
aF804.805415327
aF398.777010123
aF142552.0
aF4.8e-05
aa(lp155
F13073.0
aF792.804322285
aF400.662049665
aF89288.0
aF5e-05
aa(lp156
F13245.0
aF796.799727342
aF404.391349655
aF199775.0
aF5.9e-05
aa(lp157
F51680.0
aF835.264653899
aF302.326633095
aF65269.0
aF5.8e-05
aa(lp158
F51515.0
aF829.535165128
aF304.77544828
aF6299.0
aF4.7e-05
aa(lp159
F51770.0
aF821.912162221
aF307.548990323
aF94911.0
aF6.5e-05
aa(lp160
F51775.0
aF820.111751617
aF307.695502162
aF24747.0
aF5.8e-05
aa(lp161
F51161.0
aF820.49953559
aF307.816533009
aF85778.0
aF5.4e-05
aa(lp162
F51750.0
aF811.690750985
aF312.898714856
aF15859.0
aF4.6e-05
aa(lp163
F51690.0
aF826.020074281
aF321.016553783
aF15416.0
aF4.9e-05
aa(lp164
F51590.0
aF834.603738103
aF321.684114822
aF48411.0
aF4.8e-05
aa(lp165
F51640.0
aF806.823088186
aF324.555032883
aF6837.0
aF5.2e-05
aa(lp166
F37081.0
aF829.726844142
aF334.637483646
aF421048.0
aF4.8e-05
aa(lp167
F37057.0
aF823.18698731
aF342.886324895
aF147246.0
aF4.6e-05
aa(lp168
F37025.0
aF818.35071393
aF352.864665547
aF131063.0
aF4.7e-05
aa(lp169
F37119.0
aF813.724315147
aF356.853362811
aF695454.0
aF5.6e-05
aa(lp170
F37071.0
aF806.573724958
aF356.877472978
aF190365.0
aF4.8e-05
aa(lp171
F45091.0
aF807.886971209
aF364.469906345
aF164614.0
aF4.7e-05
aa(lp172
F51520.0
aF784.05333332
aF328.847863787
aF17367.0
aF5.6e-05
aa(lp173
F47163.0
aF782.499804827
aF331.593361246
aF153048.0
aF4.7e-05
aa(lp174
F47093.0
aF753.012743594
aF348.235180569
aF382032.0
aF5.6e-05
aa(lp175
F47165.0
aF705.571676152
aF342.569345394
aF130449.0
aF4.6e-05
aa(lp176
F47037.0
aF700.009323976
aF350.107265446
aF569891.0
aF6.1e-05
aa(lp177
F47149.0
aF707.710145119
aF356.803460768
aF182023.0
aF5e-05
aa(lp178
F1077.0
aF686.294590746
aF380.947137668
aF87966.0
aF4.6e-05
aa(lp179
F1033.0
aF684.091279484
aF385.661834299
aF54984.0
aF4.6e-05
aa(lp180
F1089.0
aF707.938558006
aF382.483904975
aF276700.0
aF5.1e-05
aa(lp181
F1103.0
aF702.624988295
aF389.788894045
aF111064.0
aF5.3e-05
aa(lp182
F1055.0
aF719.112287909
aF398.290991634
aF103459.0
aF4.9e-05
aa(lp183
F1015.0
aF723.907941153
aF403.837487318
aF112249.0
aF5.6e-05
aa(lp184
F1115.0
aF714.563978269
aF406.272136377
aF64742.0
aF4.7e-05
aa(lp185
F1121.0
aF718.485365885
aF413.521338651
aF80321.0
aF4.9e-05
aa(lp186
F1073.0
aF704.191210749
aF411.014665198
aF662047.0
aF7.3e-05
aa(lp187
F1117.0
aF709.193528999
aF417.394467797
aF143293.0
aF5.6e-05
aa(lp188
F1125.0
aF692.900099393
aF417.773844647
aF164875.0
aF5.4e-05
aa(lp189
F13021.0
aF767.744846588
aF421.175433164
aF153887.0
aF5.4e-05
aa(lp190
F13153.0
aF768.866056624
aF429.26170891
aF110765.0
aF4.6e-05
aa(lp191
F13285.0
aF741.206792819
aF419.291408746
aF58779.0
aF4.7e-05
aa(lp192
F1081.0
aF736.280761314
aF430.281309969
aF115092.0
aF5e-05
aa(lp193
F13215.0
aF745.265661102
aF430.987078939
aF186291.0
aF5.9e-05
aa(lp194
F1113.0
aF740.385154867
aF436.939588695
aF49756.0
aF5.6e-05
aa(lp195
F1101.0
aF720.281573781
aF440.436162917
aF223510.0
aF5.7e-05
aa(lp196
F47065.0
aF732.643747577
aF370.017730905
aF307896.0
aF6.1e-05
aa(lp197
F13047.0
aF734.388362226
aF375.991769202
aF53282.0
aF5e-05
aa(lp198
F13313.0
aF737.308367745
aF378.040993858
aF83525.0
aF5.6e-05
aa(lp199
F13295.0
aF731.703883397
aF380.217410319
aF61053.0
aF5.4e-05
aa(lp200
F13129.0
aF740.472181415
aF384.60635928
aF44104.0
aF5e-05
aa(lp201
F13015.0
aF741.560012096
aF390.864452051
aF76019.0
aF4.8e-05
aa(lp202
F13115.0
aF734.580792996
aF390.450110664
aF90565.0
aF5.2e-05
aa(lp203
F13117.0
aF755.145102581
aF389.478397813
aF98407.0
aF5.1e-05
aa(lp204
F13057.0
aF748.412720226
aF389.846908157
aF141903.0
aF5.3e-05
aa(lp205
F13059.0
aF770.365599785
aF394.047543369
aF101489.0
aF5.3e-05
aa(lp206
F13219.0
aF769.191246041
aF396.756414858
aF26225.0
aF4.7e-05
aa(lp207
F13135.0
aF758.038826857
aF395.110327675
aF588448.0
aF6.3e-05
aa(lp208
F13013.0
aF763.778282645
aF393.625933437
aF46144.0
aF4.7e-05
aa(lp209
F13297.0
aF763.860443745
aF398.939532724
aF60687.0
aF5e-05
aa(lp210
F13089.0
aF754.465443436
aF400.059456026
aF665865.0
aF6.8e-05
aa(lp211
F13247.0
aF758.37864157
aF402.49780372
aF70111.0
aF5.6e-05
aa(lp212
F13217.0
aF762.124521207
aF404.381839078
aF62001.0
aF5.2e-05
aa(lp213
F13067.0
aF747.238620236
aF397.293799252
aF607751.0
aF6.4e-05
aa(lp214
F13121.0
aF750.160287596
aF399.907752014
aF816006.0
aF7e-05
aa(lp215
F13223.0
aF741.778484027
aF398.177004976
aF81678.0
aF4.8e-05
aa(lp216
F13097.0
aF744.596506113
aF402.962208469
aF92174.0
aF5.3e-05
aa(lp217
F13045.0
aF738.792024777
aF406.300529008
aF87268.0
aF4.6e-05
aa(lp218
F13151.0
aF756.589546538
aF407.288873768
aF119341.0
aF5.6e-05
aa(lp219
F13063.0
aF752.853876848
aF406.722877803
aF236517.0
aF6.6e-05
aa(lp220
F13113.0
aF750.29432181
aF409.288659145
aF91263.0
aF5.1e-05
aa(lp221
F13255.0
aF754.429031747
aF412.402694941
aF58417.0
aF4.9e-05
aa(lp222
F13077.0
aF745.613117606
aF411.392480996
aF89215.0
aF4.7e-05
aaa(lp223
(lp224
F31055.0
aF525.799353573
aF238.14275337
aF463585.0
aF6.2e-05
aa(lp225
F31153.0
aF527.065884457
aF242.564882077
aF122595.0
aF4.9e-05
aa(lp226
F31109.0
aF516.78216337
aF250.188023316
aF250291.0
aF6.1e-05
aa(lp227
F29095.0
aF558.451289477
aF291.559180265
aF654880.0
aF4.6e-05
aa(lp228
F20209.0
aF550.661615218
aF289.397706643
aF157882.0
aF5.1e-05
aa(lp229
F20091.0
aF549.942556013
aF294.526691953
aF451086.0
aF5e-05
aa(lp230
F20173.0
aF502.059178492
aF322.563937328
aF452869.0
aF5.1e-05
aa(lp231
F40143.0
aF529.254373189
aF359.119882043
aF563299.0
aF5.1e-05
aa(lp232
F40121.0
aF534.015957707
aF386.972736212
aF43953.0
aF5.2e-05
aaa(lp233
(lp234
F24001.0
aF834.528507681
aF249.862506444
aF74930.0
aF4.8e-05
aa(lp235
F24043.0
aF849.08430905
aF247.089766046
aF131923.0
aF4.6e-05
aa(lp236
F51840.0
aF845.843602685
aF258.214178983
aF23585.0
aF7.1e-05
aa(lp237
F24025.0
aF876.595690503
aF242.900377968
aF218590.0
aF4.6e-05
aa(lp238
F24005.0
aF871.921241442
aF246.932531615
aF754292.0
aF6.1e-05
aa(lp239
F24510.0
aF872.946822486
aF249.834427518
aF651154.0
aF7.4e-05
aa(lp240
F24021.0
aF858.130790832
aF248.37974611
aF195277.0
aF5e-05
aa(lp241
F24027.0
aF867.127763298
aF252.141340019
aF247842.0
aF6e-05
aa(lp242
F24031.0
aF863.180208628
aF255.65657011
aF873341.0
aF6.5e-05
aa(lp243
F24003.0
aF874.299504257
aF257.092978322
aF489656.0
aF5.3e-05
aa(lp244
F24033.0
aF870.786325575
aF261.829970016
aF801515.0
aF6.4e-05
aa(lp245
F51107.0
aF855.815074611
aF258.409034617
aF169599.0
aF4.9e-05
aa(lp246
F11001.0
aF867.470401202
aF260.460974222
aF572059.0
aF7.7e-05
aa(lp247
F51013.0
aF865.681962839
aF261.222875114
aF189453.0
aF7.7e-05
aa(lp248
F51610.0
aF864.078108667
aF261.655667801
aF10377.0
aF6.9e-05
aa(lp249
F51510.0
aF866.572477724
aF262.734686855
aF128283.0
aF6.8e-05
aa(lp250
F51600.0
aF862.256446343
aF262.782164265
aF21498.0
aF5.3e-05
aa(lp251
F51059.0
aF863.064397845
aF262.414412378
aF969749.0
aF5.7e-05
aa(lp252
F51153.0
aF859.756240659
aF265.893152114
aF280813.0
aF4.9e-05
aa(lp253
F51683.0
aF859.478597162
aF265.957478667
aF35135.0
aF4.7e-05
aa(lp254
F51685.0
aF860.344274735
aF264.983409643
aF10290.0
aF4.8e-05
aa(lp255
F51630.0
aF861.833345286
aF275.583093594
aF19279.0
aF4.8e-05
aa(lp256
F51660.0
aF836.595959983
aF277.430066898
aF40468.0
aF5.2e-05
aa(lp257
F51540.0
aF845.239184424
aF285.286609195
aF45049.0
aF5.4e-05
aa(lp258
F51820.0
aF837.346467474
aF285.851438947
aF19520.0
aF5.8e-05
aa(lp259
F51085.0
aF864.408961095
aF288.394572842
aF86320.0
aF4.6e-05
aa(lp260
F51087.0
aF866.389610525
aF292.780704494
aF262300.0
aF6.3e-05
aa(lp261
F51760.0
aF865.424050159
aF293.735963553
aF197790.0
aF8.6e-05
aa(lp262
F51041.0
aF864.751974086
aF297.511130095
aF259903.0
aF5.2e-05
aa(lp263
F51570.0
aF868.048530719
aF299.360459202
aF16897.0
aF5.6e-05
aa(lp264
F51730.0
aF868.570007986
aF300.748068057
aF33740.0
aF5.4e-05
aa(lp265
F51670.0
aF869.945850178
aF298.459424039
aF22354.0
aF5.5e-05
aa(lp266
F51595.0
aF868.072034995
aF313.157738101
aF5665.0
aF4.8e-05
aa(lp267
F51700.0
aF884.986697443
aF300.108812755
aF180150.0
aF4.6e-05
aa(lp268
F51650.0
aF888.170749548
aF300.381712282
aF146437.0
aF4.6e-05
aa(lp269
F51710.0
aF890.538449993
aF303.826879654
aF234403.0
aF4.9e-05
aa(lp270
F36119.0
aF912.141547823
aF196.592589736
aF923459.0
aF6.5e-05
aa(lp271
F36087.0
aF907.86300402
aF197.579715272
aF286753.0
aF4.9e-05
aa(lp272
F34031.0
aF904.161746346
aF201.712206531
aF489049.0
aF6.3e-05
aa(lp273
F34003.0
aF907.896066895
aF202.302470427
aF884118.0
aF6.9e-05
aa(lp274
F36059.0
aF917.384980291
aF205.43647538
aF1334544.0
aF7.6e-05
aa(lp275
F36005.0
aF912.315497328
aF203.674106811
aF1332650.0
aF0.00011
aa(lp276
F36061.0
aF911.072622034
aF205.783086757
aF1537195.0
aF0.00015
aa(lp277
F36081.0
aF913.462051588
aF207.615750359
aF2229379.0
aF8.9e-05
aa(lp278
F36047.0
aF911.595580089
aF208.928374072
aF2465326.0
aF9.8e-05
aa(lp279
F34013.0
aF906.236730753
aF206.977429459
aF793633.0
aF7.1e-05
aa(lp280
F34017.0
aF909.08042421
aF207.462937763
aF608975.0
aF9.1e-05
aa(lp281
F34039.0
aF905.587082153
aF210.045085725
aF522541.0
aF7.3e-05
aa(lp282
F36085.0
aF908.749199508
aF211.307161341
aF443728.0
aF7e-05
aa(lp283
F34023.0
aF904.976453741
aF215.001458637
aF750162.0
aF5.9e-05
aa(lp284
F34021.0
aF900.837767215
aF220.161475984
aF350761.0
aF4.6e-05
aa(lp285
F42011.0
aF878.575486588
aF221.678319842
aF373638.0
aF4.6e-05
aa(lp286
F42101.0
aF894.72914873
aF227.900547575
aF1517550.0
aF5.8e-05
aa(lp287
F42045.0
aF890.848103047
aF231.287395353
aF550864.0
aF5.2e-05
aa(lp288
F34005.0
aF903.696809122
aF229.406192432
aF423394.0
aF4.6e-05
aa(lp289
F34007.0
aF899.061431482
aF232.054232622
aF508932.0
aF5.7e-05
aa(lp290
F10003.0
aF888.26796027
aF239.785084878
aF500265.0
aF4.9e-05
aa(lp291
F36083.0
aF907.985922231
aF160.259081442
aF152538.0
aF4.7e-05
aa(lp292
F36001.0
aF900.893220363
aF164.489226174
aF294565.0
aF4.9e-05
aa(lp293
F25015.0
aF923.51496257
aF165.065795331
aF152251.0
aF4.6e-05
aa(lp294
F25013.0
aF925.818389384
aF169.274417202
aF456228.0
aF5.2e-05
aa(lp295
F9013.0
aF932.609837236
aF174.394154191
aF136364.0
aF5e-05
aa(lp296
F9003.0
aF925.917212741
aF177.152290276
aF857183.0
aF5.7e-05
aa(lp297
F9007.0
aF931.146412937
aF184.643328414
aF155071.0
aF5.1e-05
aa(lp298
F9009.0
aF924.915452791
aF187.557375239
aF824008.0
aF5.4e-05
aa(lp299
F36079.0
aF910.914101605
aF190.332224
aF95745.0
aF4.8e-05
aa(lp300
F9001.0
aF917.147792831
aF191.892113077
aF882567.0
aF5.3e-05
aa(lp301
F9005.0
aF917.693447363
aF179.72354771
aF182193.0
aF4.8e-05
aa(lp302
F36103.0
aF929.241649488
aF199.278463003
aF1419369.0
aF6.3e-05
aa(lp303
F33011.0
aF936.826960243
aF147.991772374
aF380841.0
aF5e-05
aa(lp304
F25017.0
aF943.405755498
aF156.504310828
aF1465396.0
aF5.6e-05
aa(lp305
F25021.0
aF948.811505542
aF162.842169307
aF650308.0
aF5.3e-05
aa(lp306
F25025.0
aF950.299079197
aF158.007070966
aF689807.0
aF7e-05
aaa.