(lp0
((lp1
S's0'
p2
aS'65286004'
p3
aS'65371808'
p4
aS'65371811'
p5
aS'65371816'
p6
aS'303705617'
p7
aS'65285572'
p8
aS'65371828'
p9
aS'65371832'
p10
aS'65371838'
p11
aS'65281270'
p12
aS'311083006'
p13
aS'384898292'
p14
aS'766946830'
p15
aS'65283914'
p16
aS'299387925'
p17
aS'65283921'
p18
aS'4000796258'
p19
aS'5108177063'
p20
aS'65283935'
p21
aS'65283938'
p22
aS'539995199'
p23
aS'65344708'
p24
aS'266910523'
p25
aS'65281357'
p26
aS'265666749'
p27
aS'775301861'
p28
aS'65281359'
p29
aS'3999586585'
p30
aS'65281379'
p31
aS'65288985'
p32
aS'3999586588'
p33
aS'65308820'
p34
aS'1264253436'
p35
aS'65308746'
p36
aS'261510709'
p37
aS'261510697'
p38
aS'261510687'
p39
aI1500
F0.046097356278112706
tp40
a((lp41
g2
aS'3718987342'
p42
aS'312102171'
p43
aS'65282380'
p44
aS'65374009'
p45
aS'65282392'
p46
aS'312102187'
p47
aS'1674476442'
p48
aS'1674476329'
p49
aS'1674476369'
p50
aS'3722724713'
p51
aS'1674476473'
p52
aS'1674476305'
p53
aS'1057914592'
p54
aS'1792772898'
p55
aS'3685132833'
p56
aS'3685132835'
p57
aS'3555158494'
p58
aS'3555158493'
p59
aS'4002310663'
p60
aS'3685177534'
p61
aS'831556633'
p62
aS'262258029'
p63
aS'5172019190'
p64
aS'65307609'
p65
aS'4351880438'
p66
aS'355786801'
p67
aS'262258031'
p68
aS'65364337'
p69
aS'262257712'
p70
aS'5428509928'
p71
aS'5428509923'
p72
aS'5428509934'
p73
aS'5428509931'
p74
aS'262263366'
p75
aS'5022036464'
p76
aS'65336125'
p77
aS'65322720'
p78
aS'65312716'
p79
aS'65339521'
p80
aS'65299440'
p81
aS'65333918'
p82
aS'65339518'
p83
aS'65337445'
p84
aS'65339516'
p85
aS'65336921'
p86
aS'4019294261'
p87
aS'4019294259'
p88
aS'259139109'
p89
aS'259138858'
p90
aS'259138856'
p91
aS'259138855'
p92
aS'65297832'
p93
aS'65339460'
p94
aS'258913493'
p95
aI1000
F0.07328365909224213
tp96
a((lp97
g2
ag42
ag43
ag44
ag45
ag46
ag47
ag48
ag49
aS'741751306'
p98
aS'741751307'
p99
aS'741751228'
p100
aS'741751225'
p101
aS'741751191'
p102
aS'4021519522'
p103
aS'4021519547'
p104
aS'4021519562'
p105
aS'4021519561'
p106
aS'4021519543'
p107
aS'258906453'
p108
aS'4021519555'
p109
aS'65295450'
p110
aS'4690222115'
p111
aS'65330045'
p112
aS'258910929'
p113
aS'258911618'
p114
aS'258911619'
p115
aS'775098097'
p116
aS'258911615'
p117
aS'3997950283'
p118
aS'258911613'
p119
aS'5431134821'
p120
aS'3997950284'
p121
aS'258911617'
p122
aS'5431134407'
p123
aS'258911601'
p124
aS'5431134404'
p125
aS'258911600'
p126
aS'5432250210'
p127
aS'3997950285'
p128
aS'258911603'
p129
aS'3997950286'
p130
aS'258911602'
p131
aS'258911607'
p132
aS'258911597'
p133
aS'3997967143'
p134
aS'258911596'
p135
aS'3997967144'
p136
aS'5432252824'
p137
aS'258911598'
p138
aS'258911599'
p139
aS'258911592'
p140
aS'5432252718'
p141
aS'5432252713'
p142
aS'3997967145'
p143
aS'65338198'
p144
aS'258911593'
p145
aS'4783986990'
p146
aS'3997995461'
p147
aS'4019269613'
p148
aS'4019282333'
p149
aS'4177283405'
p150
aS'65308483'
p151
aS'3998001353'
p152
aS'1152536843'
p153
aS'3998001352'
p154
aS'65347011'
p155
aS'65361702'
p156
aS'65361705'
p157
aS'65308372'
p158
aS'65307916'
p159
aS'65352293'
p160
aS'65352311'
p161
aS'65287287'
p162
aS'5025735415'
p163
aS'3998115408'
p164
aS'4018752380'
p165
aS'65325408'
p166
aI1000
F0.07955081612692697
tp167
a((lp168
g2
ag42
ag43
ag44
ag45
ag46
ag47
ag48
ag49
ag98
ag99
ag100
ag101
ag102
ag103
ag104
ag105
ag106
ag107
ag108
ag109
ag110
ag111
ag112
ag113
ag114
ag115
ag116
ag117
ag118
ag119
ag120
ag121
ag122
ag123
ag124
ag125
ag126
ag127
ag128
ag129
ag130
ag131
ag132
ag133
ag134
ag135
ag136
ag137
ag138
ag139
ag140
ag141
ag142
ag143
ag144
ag145
aS'3997967146'
p169
aS'65329863'
p170
aS'65297411'
p171
aS'5432250216'
p172
aS'5432250215'
p173
aS'258911587'
p174
aS'3998017577'
p175
aS'258911591'
p176
aS'3998017578'
p177
aS'258911590'
p178
aS'5189205591'
p179
aS'3998017580'
p180
aS'258911588'
p181
aS'258911586'
p182
aS'65338252'
p183
aS'65338254'
p184
aS'4015801104'
p185
aS'4015801100'
p186
aS'4132451645'
p187
aS'258467576'
p188
aS'65336821'
p189
ag95
aI500
F0.08167803828373522
tp190
a((lp191
g2
ag42
ag43
ag44
ag45
ag46
ag47
ag48
ag49
ag50
ag51
ag52
ag53
ag54
ag55
ag56
ag57
ag58
ag59
ag60
ag61
ag62
ag63
ag64
ag65
ag66
ag67
ag68
ag69
ag70
ag71
ag72
ag73
ag74
ag75
aS'262078989'
p192
aS'5026547798'
p193
aS'262078988'
p194
aS'5426873443'
p195
aS'5426873439'
p196
aS'262078987'
p197
aS'621547505'
p198
aS'262078986'
p199
aS'65341510'
p200
aS'65336114'
p201
aS'65321038'
p202
aS'65322715'
p203
aS'65312706'
p204
aS'65345288'
p205
aS'65299426'
p206
aS'65333932'
p207
aS'65365236'
p208
aS'65337437'
p209
aS'65365195'
p210
aS'65336914'
p211
aS'65307440'
p212
aS'65295361'
p213
aS'65352464'
p214
aS'4703074655'
p215
aS'65348285'
p216
aS'5429032460'
p217
aS'5429032496'
p218
aS'5429032459'
p219
aS'65352468'
p220
aS'65336596'
p221
aS'5433307513'
p222
aS'259139108'
p223
ag89
ag90
ag91
ag92
ag93
ag94
ag95
aI500
F0.0901317271937224
tp224
a((lp225
g2
ag42
ag43
ag44
ag45
ag46
ag47
ag48
ag49
ag50
ag51
ag52
ag53
ag54
ag55
ag56
ag57
ag58
ag59
ag60
ag61
ag62
ag63
ag64
ag65
ag66
ag67
ag68
ag69
ag70
ag71
ag72
ag73
ag74
ag75
ag192
ag193
ag194
ag195
ag196
ag197
ag198
ag199
aS'262078985'
p226
aS'4917881742'
p227
aS'262078984'
p228
aS'262078983'
p229
aS'5426872910'
p230
aS'5426872907'
p231
aS'262078982'
p232
aS'262078981'
p233
aS'65350777'
p234
aS'4177127571'
p235
aS'5426872891'
p236
aS'295191216'
p237
aS'1221046451'
p238
aS'65336103'
p239
aS'1221046277'
p240
aS'4177127569'
p241
aS'1221046421'
p242
aS'65322699'
p243
aS'1221046472'
p244
aS'1221046419'
p245
aS'65312690'
p246
aS'1221046525'
p247
aS'5426872866'
p248
aS'4730235607'
p249
aS'65345281'
p250
aS'4730235600'
p251
aS'4730235271'
p252
aS'65299400'
p253
aS'4177156441'
p254
aS'65333938'
p255
aS'4730235234'
p256
aS'5426872873'
p257
aS'4759501944'
p258
aS'65372847'
p259
aS'4759501940'
p260
aS'5429032514'
p261
aS'65337430'
p262
aS'4759501922'
p263
aS'5020788299'
p264
aS'4759501909'
p265
aS'65374555'
p266
aS'4177156440'
p267
aS'4759501891'
p268
aS'65337001'
p269
aS'65307417'
p270
aS'4759501865'
p271
aS'1564279877'
p272
aS'65295342'
p273
aS'65352459'
p274
aS'4759501713'
p275
aS'65369700'
p276
aS'4177156436'
p277
aS'4759501694'
p278
aS'65319966'
p279
aS'258758547'
p280
aS'65319964'
p281
aS'65319961'
p282
aS'65319958'
p283
aI500
F0.0902610213671741
tp284
a((lp285
g2
ag3
ag4
ag5
ag6
ag7
ag8
ag9
ag10
ag11
ag12
ag13
ag14
ag15
ag16
aS'298270502'
p286
aS'65371870'
p287
aS'65322266'
p288
aS'65286435'
p289
aS'2713578473'
p290
aS'295222216'
p291
aS'65374349'
p292
aS'65374342'
p293
aS'65283717'
p294
aS'65283721'
p295
aS'65283732'
p296
aS'65283735'
p297
aS'65283737'
p298
aS'65339108'
p299
aS'65317747'
p300
aS'65339102'
p301
aS'65339101'
p302
aS'65317568'
p303
aS'65339099'
p304
aS'65339095'
p305
aS'65306829'
p306
aS'3687459637'
p307
aS'65325192'
p308
aS'65319544'
p309
aS'65339089'
p310
aS'65306956'
p311
aS'4178174287'
p312
aS'5012209349'
p313
aS'4061762661'
p314
aS'65325363'
p315
aS'5434001263'
p316
aS'65354417'
p317
aS'65287204'
p318
aS'65352337'
p319
aS'3021675450'
p320
aS'65308278'
p321
aS'65354419'
p322
aS'5429620641'
p323
aS'65354421'
p324
aS'65342650'
p325
aS'5429620653'
p326
aS'65333834'
p327
aS'65323352'
p328
aS'65317956'
p329
aS'65354423'
p330
aS'65334137'
p331
aS'65353166'
p332
aS'65314171'
p333
aS'65354431'
p334
aS'65303554'
p335
aS'4177168689'
p336
aS'65335810'
p337
ag282
ag283
aI750
F0.1038599555269073
tp338
a((lp339
g2
ag3
ag4
ag5
ag6
ag7
ag8
ag9
ag10
ag11
ag12
ag13
ag14
ag15
ag16
ag286
ag287
ag288
ag289
ag290
ag291
ag292
ag293
ag294
ag295
ag296
ag297
ag298
ag299
ag300
ag301
ag302
ag303
ag304
ag305
ag306
ag307
ag308
ag309
ag310
ag311
ag312
ag313
ag314
aS'295811049'
p340
aS'1804730952'
p341
aS'1804730958'
p342
aS'4720933150'
p343
aS'65325366'
p344
aS'258758039'
p345
aS'65324329'
p346
aS'3999365254'
p347
aS'1243846540'
p348
aS'258758038'
p349
aS'1243846525'
p350
aS'1243846490'
p351
aS'65352339'
p352
aS'1243846505'
p353
aS'65351239'
p354
aS'1243846577'
p355
aS'258758554'
p356
aS'1243846482'
p357
aS'65374496'
p358
aS'4177105010'
p359
aS'4931688234'
p360
aS'1243846488'
p361
aS'258758555'
p362
aS'4931688233'
p363
aS'258758552'
p364
aS'5130735480'
p365
aS'65342652'
p366
aS'4177105012'
p367
aS'5130946474'
p368
aS'258758553'
p369
aS'65323356'
p370
aS'258758550'
p371
aS'4759500436'
p372
aS'65369287'
p373
aS'4931688232'
p374
aS'4759500485'
p375
aS'258758551'
p376
aS'2338351570'
p377
aS'258758549'
p378
aS'4759500517'
p379
aS'65361652'
p380
aS'5039325536'
p381
aS'4759501663'
p382
aS'258758548'
p383
aS'65335812'
p384
ag280
ag281
ag282
ag283
aI250
F0.1061798852141153
tp385
a((lp386
g2
ag3
ag4
ag5
ag6
ag7
ag8
ag9
ag10
ag11
ag12
ag13
ag14
ag15
ag16
ag286
ag287
ag288
ag289
ag290
ag291
aS'308712276'
p387
aS'298081952'
p388
aS'65282467'
p389
aS'1260360807'
p390
aS'65282506'
p391
aS'5435466358'
p392
aS'5435466348'
p393
aS'4170182034'
p394
aS'65303713'
p395
aS'65303711'
p396
aS'4911322449'
p397
aS'65303706'
p398
aS'65303704'
p399
aS'65303703'
p400
aS'65303700'
p401
aS'5434001248'
p402
aS'4850395376'
p403
aS'65303696'
p404
aS'4177105003'
p405
aS'4177105004'
p406
aS'4850395377'
p407
aS'65303692'
p408
aS'4177105005'
p409
aS'4850395378'
p410
aS'4061806112'
p411
aS'1723738966'
p412
aS'4061806118'
p413
aS'65303689'
p414
aS'4177105008'
p415
aS'1420265658'
p416
aS'65352325'
p417
aS'4064226224'
p418
aS'65308268'
p419
aS'5429620634'
p420
aS'65362154'
p421
aS'65362158'
p422
aS'65333826'
p423
aS'65317951'
p424
aS'65334128'
p425
aS'4177105016'
p426
aS'65314163'
p427
aS'65303552'
p428
aS'65319956'
p429
aS'65352450'
p430
aS'65281950'
p431
aS'65352454'
p432
ag283
aI750
F0.1112180196515877
tp433
a((lp434
g2
ag42
ag43
ag44
ag45
ag46
ag47
ag48
ag49
ag50
ag51
ag52
ag53
ag54
ag55
ag56
aS'3685132837'
p435
aS'3555158495'
p436
aS'1792772842'
p437
aS'1792772938'
p438
aS'4002286830'
p439
aS'3555589290'
p440
aS'4002286817'
p441
aS'65340639'
p442
aS'828411434'
p443
aS'3649464240'
p444
aS'3611182330'
p445
aS'3611182331'
p446
aS'3685132827'
p447
aS'287826858'
p448
aS'725288010'
p449
aS'2933665486'
p450
aS'725284181'
p451
aS'725284295'
p452
aS'4008988541'
p453
aS'65339524'
p454
aS'65297275'
p455
aS'65333385'
p456
aS'65296864'
p457
aS'65303209'
p458
aS'65317193'
p459
aS'4865437647'
p460
aS'5022036465'
p461
aS'262263365'
p462
aS'5428509937'
p463
aS'65301595'
p464
aS'355787265'
p465
ag68
aS'65364384'
p466
aS'65336838'
p467
aS'5428509612'
p468
aS'65336684'
p469
aS'65364388'
p470
aS'65364393'
p471
aS'65314454'
p472
aS'65361886'
p473
aS'65363410'
p474
aS'65358430'
p475
aS'613315053'
p476
aS'65309488'
p477
aS'65326852'
p478
aS'5321012522'
p479
aS'65363426'
p480
aS'65314056'
p481
aS'65352253'
p482
aS'65297371'
p483
aS'65297374'
p484
aS'65297376'
p485
aS'65297379'
p486
aS'65297381'
p487
aS'65295385'
p488
aS'65295388'
p489
aS'5433307475'
p490
aS'65295392'
p491
aS'65295399'
p492
aS'5432252647'
p493
aS'5432252640'
p494
aS'65295401'
p495
aS'65295403'
p496
aI500
F0.12761894783370703
tp497
a((lp498
g2
ag3
ag4
ag5
ag6
ag7
ag8
ag9
ag10
ag11
ag12
ag13
ag14
ag15
ag16
ag286
ag287
ag288
ag289
ag290
ag291
ag292
ag293
ag294
aS'733638862'
p499
aS'65284015'
p500
aS'2315555441'
p501
aS'314137292'
p502
aS'65281218'
p503
aS'267455477'
p504
aS'298082750'
p505
aS'267455480'
p506
aS'267455482'
p507
aS'2763295990'
p508
aS'307638472'
p509
aS'2568380120'
p510
aS'65284974'
p511
aS'65292699'
p512
aS'65328196'
p513
aS'65354073'
p514
aS'65348299'
p515
aS'5433624484'
p516
aS'65354077'
p517
aS'5433624477'
p518
aS'5433624474'
p519
aS'5035348354'
p520
aS'3716495457'
p521
aS'5035348351'
p522
aS'5433624459'
p523
aS'4177274221'
p524
aS'5062545300'
p525
aS'65339258'
p526
aS'65325391'
p527
aS'65339271'
p528
aS'65287243'
p529
aS'2819281449'
p530
aS'65339290'
p531
aS'65308325'
p532
aS'65339305'
p533
aS'4784127976'
p534
aS'65339315'
p535
aS'5433307327'
p536
aS'65333859'
p537
aS'65317986'
p538
aS'259138852'
p539
aS'3978835971'
p540
aS'5433307334'
p541
aS'65301539'
p542
aS'4023103673'
p543
ag189
ag95
aI500
F0.12810259932720344
tp544
a((lp545
g2
ag3
ag4
ag5
ag6
ag7
ag8
ag9
ag10
ag11
ag12
ag13
ag14
ag15
ag16
ag286
ag287
ag288
ag289
ag290
ag291
ag292
ag293
ag294
ag499
ag500
ag501
ag502
ag503
ag504
ag505
ag506
ag507
ag508
ag509
ag510
ag511
ag512
ag513
ag514
ag515
ag516
ag517
ag518
ag519
ag520
ag521
ag522
ag523
ag524
ag525
ag526
ag527
ag528
ag529
ag530
ag531
ag532
ag533
ag534
ag535
ag536
ag537
ag538
aS'3999046357'
p546
aS'258913486'
p547
aS'65339338'
p548
ag94
aS'65301542'
p549
aS'5433307369'
p550
aS'5433307372'
p551
aS'258475645'
p552
aS'258468617'
p553
aS'65336669'
p554
aS'65338267'
p555
aS'4014184973'
p556
aS'342570876'
p557
aS'258456881'
p558
aS'2236649167'
p559
aS'258467531'
p560
aS'342573716'
p561
aS'3998017582'
p562
aS'65337991'
p563
aS'5433307427'
p564
aS'258467480'
p565
ag188
ag189
ag95
aI250
F0.13481702661618059
tp566
a((lp567
g2
ag3
aS'65285998'
p568
aS'65285992'
p569
aS'767759459'
p570
aS'65285988'
p571
aS'65285329'
p572
aS'65285969'
p573
aS'65331336'
p574
aS'259395677'
p575
aS'259389752'
p576
aS'311778548'
p577
aS'311778552'
p578
aS'340160946'
p579
aS'65324431'
p580
aS'1656766049'
p581
aS'311779353'
p582
aS'4944670427'
p583
aS'298940483'
p584
aS'4911186310'
p585
aS'4626863887'
p586
aS'65305454'
p587
aS'4179428305'
p588
aS'65348962'
p589
aS'4179428304'
p590
aS'65327516'
p591
aS'4710906428'
p592
aS'4710906429'
p593
aS'4710906424'
p594
aS'4626863888'
p595
aS'4911186262'
p596
aS'4911186257'
p597
aS'4941850313'
p598
aS'4179428303'
p599
aS'4710903190'
p600
aS'4710902986'
p601
aS'4353522859'
p602
aS'1472411067'
p603
aS'65328414'
p604
aS'258886231'
p605
aS'65281639'
p606
aS'311713937'
p607
aS'65281615'
p608
ag288
ag289
ag290
ag291
ag292
ag293
ag294
ag499
ag500
ag501
ag502
ag503
ag504
ag505
ag506
ag507
ag508
ag509
ag510
ag511
ag512
ag513
ag514
ag515
ag516
ag517
ag518
ag519
ag520
ag521
ag522
ag523
ag524
ag525
ag526
ag527
ag528
ag529
ag530
ag531
ag532
ag533
ag534
ag535
ag536
ag537
ag538
ag546
ag547
ag548
ag94
ag549
ag550
ag551
ag552
ag553
ag554
ag555
ag556
ag557
ag558
ag559
ag560
ag561
ag562
ag563
ag564
ag565
ag188
ag189
ag95
aI250
F0.15193363365765497
tp609
a((lp610
g2
ag3
ag568
ag569
ag570
ag571
ag572
ag573
ag574
ag575
ag576
ag577
ag578
ag579
ag580
ag581
ag582
ag583
ag584
ag585
ag586
ag587
ag588
ag589
ag590
ag591
ag592
ag593
ag594
ag595
ag596
ag597
ag598
ag599
ag600
ag601
ag602
ag603
ag604
ag605
ag606
ag607
ag608
ag288
ag289
ag290
ag291
ag292
ag293
ag294
ag499
ag500
ag501
ag502
ag503
ag504
ag505
ag506
ag507
ag508
ag509
ag510
ag511
ag512
ag513
ag514
ag515
ag516
ag517
ag518
ag519
ag520
ag521
ag522
ag523
ag524
ag525
ag526
aS'259138838'
p611
aS'5062544747'
p612
aS'3999022983'
p613
aS'65301517'
p614
aS'3745002169'
p615
aS'3999022982'
p616
aS'65336860'
p617
aS'65336708'
p618
aS'4416004200'
p619
aS'65313357'
p620
aS'65313359'
p621
aS'65325398'
p622
aS'4828619468'
p623
aS'5433624445'
p624
aS'5433624446'
p625
aS'65325401'
p626
aS'65325404'
p627
aS'5437182872'
p628
aS'65325405'
p629
aS'5433624435'
p630
aS'65325407'
p631
aS'5437182881'
p632
aS'5437182888'
p633
ag166
aI500
F0.15793822387898107
tp634
a((lp635
g2
ag3
ag568
ag569
ag570
ag571
ag572
ag573
ag574
ag575
ag576
ag577
ag578
ag579
ag580
ag581
ag582
ag583
ag584
ag585
ag586
ag587
ag588
ag589
ag590
ag591
ag592
ag593
ag594
ag595
ag596
ag597
ag598
ag599
ag600
ag601
ag602
ag603
ag604
ag605
ag606
ag607
ag608
ag288
ag289
ag290
ag291
ag292
ag293
ag294
ag499
ag500
aS'3984080377'
p636
aS'298081679'
p637
aS'65337852'
p638
aS'5437877002'
p639
aS'65337860'
p640
aS'2315556017'
p641
aS'4547291308'
p642
aS'65325654'
p643
aS'5437876993'
p644
aS'4177086680'
p645
aS'5437876990'
p646
aS'4177086682'
p647
aS'3386704350'
p648
aS'260118044'
p649
aS'65363176'
p650
aS'65362987'
p651
aS'5022428503'
p652
aS'1723739386'
p653
aS'4165593360'
p654
aS'4013332675'
p655
aS'258758040'
p656
aS'4013332671'
p657
aS'3999380120'
p658
ag345
ag346
ag347
ag348
ag349
ag350
ag351
ag352
ag353
ag354
ag355
ag356
ag357
ag358
ag359
ag360
ag361
ag362
aS'65372918'
p659
aS'4104762086'
p660
aS'65350752'
p661
aS'5429030141'
p662
aS'276546820'
p663
aS'448100060'
p664
aS'5270986781'
p665
aS'276546821'
p666
aS'5271590086'
p667
aS'5271590653'
p668
aS'65328216'
p669
aS'258759751'
p670
aS'65365172'
p671
aS'4883856611'
p672
aS'65348290'
p673
aS'4883856617'
p674
aS'4883856619'
p675
aS'4883856726'
p676
aS'65357228'
p677
aS'4883857856'
p678
aS'65336588'
p679
aS'65308612'
p680
ag533
ag534
ag535
ag536
ag537
ag538
ag546
ag547
ag548
aS'5433307349'
p681
aS'5433307528'
p682
aS'65314202'
p683
aS'65303581'
p684
aS'3931471411'
p685
aS'65319992'
p686
ag223
ag89
aS'65301554'
p687
aS'5433307510'
p688
aS'65336823'
p689
aS'65336671'
p690
aS'65352257'
p691
aS'4023155492'
p692
aS'4177265202'
p693
aS'65295383'
p694
ag488
ag489
ag490
ag491
ag492
ag493
ag494
ag495
ag496
aI500
F0.16798392522725414
tp695
a((lp696
g2
ag3
ag568
ag569
ag570
ag571
ag572
ag573
ag574
ag575
ag576
ag577
ag578
ag579
ag580
ag581
ag582
ag583
ag584
ag585
ag586
ag587
ag588
ag589
ag590
ag591
ag592
ag593
ag594
ag595
ag596
ag597
ag598
ag599
ag600
ag601
ag602
ag603
ag604
ag605
ag606
ag607
ag608
ag288
ag289
ag290
ag291
ag292
ag293
ag294
ag499
ag500
ag636
ag637
ag638
aS'300515878'
p697
aS'65314340'
p698
aS'65314345'
p699
aS'65314348'
p700
aS'5437876965'
p701
aS'65314351'
p702
aS'65292403'
p703
aS'4087625920'
p704
aS'258968238'
p705
aS'295083366'
p706
aS'5437876976'
p707
aS'5437876971'
p708
aS'3999081410'
p709
aS'5437876968'
p710
aS'5437876982'
p711
aS'5437876987'
p712
aS'65314360'
p713
aS'65292682'
p714
aS'1723563882'
p715
aS'65367656'
p716
aS'1785845245'
p717
aS'297860858'
p718
aS'4179413931'
p719
aS'1563088577'
p720
aS'65309842'
p721
aS'65318037'
p722
aS'3853404472'
p723
aS'5437461538'
p724
aS'4357170829'
p725
aS'65367485'
p726
aS'65312206'
p727
aS'5438557813'
p728
aS'5438557812'
p729
aS'5027131659'
p730
aS'1563088522'
p731
aS'581047249'
p732
aS'65345379'
p733
aS'4189211976'
p734
aS'342676141'
p735
aS'65296324'
p736
aS'1996007296'
p737
aS'65304059'
p738
aS'1602081290'
p739
aS'65312115'
p740
aS'5020740563'
p741
aS'65304991'
p742
aS'65317431'
p743
aS'65301218'
p744
aS'65302728'
p745
aS'65317433'
p746
aS'65298642'
p747
aS'3999823457'
p748
aS'2642129727'
p749
aS'5020757568'
p750
aS'2642129714'
p751
aS'65337066'
p752
aS'65337071'
p753
aS'65307304'
p754
aS'65346050'
p755
aS'65333424'
p756
aS'65351550'
p757
aS'65318239'
p758
aS'65322554'
p759
aS'4179422950'
p760
aS'65351554'
p761
aS'297253755'
p762
aS'5440881175'
p763
aS'65335530'
p764
aS'4179422949'
p765
aS'3522821903'
p766
aI250
F0.1683413008270981
tp767
a((lp768
g2
ag3
ag568
ag569
ag570
ag571
ag572
aS'5020793754'
p769
aS'766934008'
p770
aS'259406745'
p771
aS'65331747'
p772
aS'764927041'
p773
aS'315706810'
p774
aS'258777853'
p775
aS'65280506'
p776
aS'258777854'
p777
aS'1719012831'
p778
aS'351962628'
p779
aS'65282876'
p780
aS'2449296877'
p781
aS'436982949'
p782
aS'258777639'
p783
aS'323371855'
p784
aS'323371635'
p785
aS'65282963'
p786
aS'65280405'
p787
aS'65282960'
p788
aS'3117933968'
p789
aS'65335102'
p790
aS'1719012877'
p791
aS'3995865167'
p792
aS'65323745'
p793
aS'65335105'
p794
aS'601364231'
p795
aS'65335116'
p796
aS'300756001'
p797
aS'260190664'
p798
aS'4184293864'
p799
aS'3978798072'
p800
aS'4184293865'
p801
aS'3978798073'
p802
aS'65316561'
p803
aS'3999347861'
p804
aS'260191102'
p805
aS'3978797442'
p806
aS'3978797440'
p807
aS'65334621'
p808
aS'65296767'
p809
aS'65318699'
p810
aS'258968254'
p811
aS'4179530074'
p812
aS'65318719'
p813
aS'258968253'
p814
aS'258968252'
p815
aS'258968251'
p816
aS'258968250'
p817
aS'65318663'
p818
aS'65322339'
p819
aS'2648832869'
p820
aS'258967888'
p821
aS'258967887'
p822
aS'258967886'
p823
aS'258967885'
p824
aS'258967884'
p825
aS'258967883'
p826
aS'258967882'
p827
aS'258967881'
p828
aS'258967880'
p829
aS'65294235'
p830
aS'2935833854'
p831
aS'65318046'
p832
aS'65312216'
p833
aS'65324860'
p834
aS'65324863'
p835
aS'65296327'
p836
aS'5438557795'
p837
aS'1723587834'
p838
aS'260494513'
p839
ag736
ag737
ag738
ag739
ag740
ag741
ag742
ag743
ag744
ag745
ag746
ag747
ag748
ag749
ag750
ag751
ag752
ag753
ag754
ag755
ag756
ag757
ag758
ag759
ag760
ag761
ag762
ag763
ag764
ag765
ag766
aI250
F0.18589182642041668
tp840
a((lp841
g2
ag3
ag568
ag569
ag570
ag571
ag572
ag769
ag770
ag771
ag772
ag773
ag774
ag775
ag776
ag777
ag778
ag779
ag780
ag781
ag782
ag783
ag784
ag785
ag786
ag787
ag788
ag789
ag790
ag791
ag792
ag793
ag794
ag795
ag796
ag797
ag798
ag799
ag800
ag801
ag802
ag803
ag804
ag805
ag806
ag807
ag808
ag809
ag810
ag811
ag812
ag813
ag814
ag815
ag816
ag817
ag818
ag819
ag820
ag821
ag822
ag823
ag824
ag825
ag826
ag827
ag828
ag829
ag830
ag831
ag832
ag833
ag834
ag835
ag836
ag837
ag838
ag839
ag736
ag737
ag738
ag739
ag740
ag741
ag742
ag743
ag744
ag745
ag746
ag747
ag748
ag749
ag750
ag751
ag752
ag753
aS'65336526'
p842
aS'65298359'
p843
aS'65298367'
p844
aS'65298370'
p845
aS'65298373'
p846
aS'65298376'
p847
aS'65336529'
p848
ag757
ag758
ag759
ag760
ag761
ag762
ag763
ag764
ag765
ag766
aI250
F0.1884482200236807
tp849
a((lp850
g2
ag3
ag568
ag569
ag570
ag571
ag572
ag573
ag574
ag575
aS'766927411'
p851
aS'767808208'
p852
aS'259393505'
p853
aS'259394878'
p854
aS'259394879'
p855
aS'259394880'
p856
aS'259395097'
p857
aS'767795311'
p858
aS'303785631'
p859
aS'239614973'
p860
aS'3974536420'
p861
aS'239601878'
p862
aS'65293779'
p863
aS'239601901'
p864
aS'595774108'
p865
aS'5435466136'
p866
aS'5435466142'
p867
aS'4911322421'
p868
aS'4911322427'
p869
aS'3999481300'
p870
aS'5435466154'
p871
aS'65315481'
p872
aS'3997889201'
p873
aS'5437055053'
p874
aS'65315477'
p875
aS'3393385402'
p876
aS'3393386010'
p877
aS'3393386187'
p878
aS'1614316115'
p879
aS'65314879'
p880
aS'5437055030'
p881
aS'65310902'
p882
aS'65300052'
p883
aS'65300054'
p884
aS'65299118'
p885
aS'448099743'
p886
aS'65300056'
p887
aS'4179555577'
p888
aS'65290217'
p889
aS'65300059'
p890
aS'65300069'
p891
aS'4179555580'
p892
aS'5429899862'
p893
aS'5429899865'
p894
aS'65300073'
p895
aS'5429899847'
p896
aS'65300076'
p897
aS'65300078'
p898
aS'65300080'
p899
aS'3999645959'
p900
aS'65300085'
p901
aS'65300093'
p902
aS'3999644592'
p903
aS'65300097'
p904
aS'65300105'
p905
aS'65300107'
p906
aS'1723738990'
p907
aS'4179555583'
p908
aS'65334111'
p909
aS'65348742'
p910
aS'65314146'
p911
aS'65302739'
p912
aS'4089793022'
p913
aS'65303533'
p914
aS'65360482'
p915
aS'65319923'
p916
aS'4104677531'
p917
aS'65352429'
p918
aS'65347346'
p919
aS'65326455'
p920
aS'65328705'
p921
aS'65352435'
p922
aS'65312384'
p923
aS'317123063'
p924
aS'65332818'
p925
aS'65326736'
p926
aS'65352443'
p927
aS'65343967'
p928
aS'65352446'
p929
aS'65333615'
p930
ag430
ag431
ag432
aS'5429620712'
p931
aS'5429620705'
p932
aS'65352457'
p933
aS'65327169'
p934
aS'5429620720'
p935
aS'258758546'
p936
ag274
aS'3003882746'
p937
aS'3003882745'
p938
aS'65350764'
p939
aS'65329111'
p940
aS'65351407'
p941
aS'5429032476'
p942
aS'65319030'
p943
aS'65292738'
p944
aS'65328348'
p945
aS'65350912'
p946
ag214
ag215
ag216
ag217
ag218
ag219
ag220
ag221
ag222
ag223
ag89
ag687
ag688
ag689
ag690
ag691
ag692
ag693
ag694
aS'65307463'
p947
ag487
aS'65307468'
p948
aS'65295740'
p949
aS'65307471'
p950
aS'65307474'
p951
aS'5432252631'
p952
ag496
aI250
F0.19540380164299545
tp953
a((lp954
g2
ag3
ag568
ag569
ag570
ag571
ag572
ag573
ag574
ag575
ag851
ag852
ag853
ag854
ag855
ag856
ag857
ag858
ag859
ag860
ag861
ag862
ag863
ag864
ag865
ag866
ag867
ag868
ag869
ag870
ag871
ag872
ag873
ag874
ag875
ag876
ag877
ag878
ag879
ag880
ag881
ag882
ag883
ag884
ag885
ag886
ag887
ag888
ag889
ag890
ag891
ag892
ag893
ag894
ag895
ag896
ag897
ag898
ag899
ag900
ag901
ag902
ag903
ag904
ag905
ag906
ag907
ag908
ag909
ag910
ag911
ag912
ag913
ag914
ag915
ag916
ag917
ag918
ag919
ag920
ag921
ag922
ag923
ag924
ag925
ag926
ag927
ag928
ag929
ag930
ag430
ag431
ag432
ag931
ag932
ag933
ag934
ag935
ag936
ag274
ag937
ag938
ag939
ag940
ag941
ag942
ag943
ag944
ag945
ag946
ag214
ag215
ag216
ag217
ag218
ag219
ag220
ag221
ag222
ag223
ag89
ag687
ag688
ag689
ag690
aS'65295379'
p955
aS'5433306819'
p956
aS'5433306818'
p957
ag694
ag947
ag487
ag948
ag949
ag950
ag951
ag952
ag496
aI250
F0.19754433049715717
tp958
a.