(lp0
(lp1
(lp2
F8123.0
aF381.964120228
aF249.569690739
aF180936.0
aF4.3e-05
aa(lp3
F8013.0
aF363.771063485
aF258.354151519
aF291288.0
aF4.2e-05
aa(lp4
F8001.0
aF379.950978294
aF265.078784954
aF363857.0
aF6.6e-05
aa(lp5
F8005.0
aF380.281283151
aF270.268826873
aF487967.0
aF5.9e-05
aa(lp6
F8031.0
aF371.038986573
aF266.847932979
aF554636.0
aF7.9e-05
aa(lp7
F8059.0
aF364.301409054
aF270.903209636
aF527056.0
aF5.5e-05
aa(lp8
F8035.0
aF369.416030839
aF276.970309849
aF175766.0
aF3.7e-05
aa(lp9
F8041.0
aF375.790705669
aF289.021943113
aF516929.0
aF4e-05
aaa(lp10
(lp11
F4027.0
aF181.81437775
aF404.543651821
aF160026.0
aF4.3e-05
aa(lp12
F4013.0
aF214.128077618
aF396.893960776
aF3072149.0
aF6.8e-05
aa(lp13
F4019.0
aF220.114121209
aF427.628584153
aF843746.0
aF4.3e-05
aaa(lp14
(lp15
F6089.0
aF77.359494209
aF188.945068958
aF163256.0
aF5.7e-05
aa(lp16
F6103.0
aF71.5357873301
aF202.011508844
aF56039.0
aF3.9e-05
aa(lp17
F6021.0
aF65.2043358182
aF213.245337355
aF26453.0
aF6.9e-05
aa(lp18
F6007.0
aF79.7767444918
aF214.910128237
aF203171.0
aF4.7e-05
aa(lp19
F6115.0
aF81.8982358215
aF225.444950413
aF60219.0
aF4.9e-05
aa(lp20
F6101.0
aF74.2003718491
aF229.646592975
aF78930.0
aF5.6e-05
aa(lp21
F6057.0
aF92.8229325958
aF227.785670718
aF92033.0
aF4.3e-05
aa(lp22
F6061.0
aF90.0298511972
aF233.575536165
aF248399.0
aF5.2e-05
aa(lp23
F6017.0
aF92.7248551882
aF240.455739829
aF156299.0
aF4e-05
aa(lp24
F6097.0
aF49.9116502001
aF235.013027008
aF458614.0
aF3.9e-05
aa(lp25
F6041.0
aF49.9496408592
aF245.964096926
aF247289.0
aF3.6e-05
aa(lp26
F6113.0
aF68.2602083189
aF236.862609218
aF168660.0
aF5.9e-05
aa(lp27
F6055.0
aF59.4974975965
aF238.640934445
aF124279.0
aF4.1e-05
aa(lp28
F6095.0
aF64.1452346104
aF245.330036641
aF394542.0
aF4.6e-05
aa(lp29
F6067.0
aF74.3547338322
aF245.49501455
aF1223499.0
aF6.1e-05
aa(lp30
F6001.0
aF61.782098866
aF259.312457296
aF1443741.0
aF7e-05
aa(lp31
F6013.0
aF62.7064814493
aF253.075658488
aF948816.0
aF5e-05
aa(lp32
F6081.0
aF52.6171444847
aF262.707477827
aF707161.0
aF5.6e-05
aa(lp33
F6075.0
aF52.7404001225
aF254.517429395
aF776733.0
aF8.4e-05
aa(lp34
F6085.0
aF63.1509653633
aF270.516712105
aF1682585.0
aF6.3e-05
aa(lp35
F6087.0
aF56.5533438458
aF272.76016278
aF255602.0
aF4.4e-05
aa(lp36
F6077.0
aF74.1740312349
aF256.485831492
aF563598.0
aF5.2e-05
aa(lp37
F6099.0
aF77.5948233373
aF265.302047042
aF446997.0
aF5.1e-05
aa(lp38
F6047.0
aF80.1217093401
aF275.749681794
aF210554.0
aF4.7e-05
aa(lp39
F6109.0
aF98.6349616034
aF260.991971394
aF54501.0
aF3.7e-05
aa(lp40
F6039.0
aF97.2145136451
aF278.975077449
aF123109.0
aF6e-05
aa(lp41
F6019.0
aF95.6093812211
aF290.162708843
aF799407.0
aF6.4e-05
aa(lp42
F6053.0
aF65.6137434028
aF295.445636927
aF401762.0
aF4e-05
aa(lp43
F6069.0
aF69.4900001127
aF286.818578085
aF53234.0
aF3.7e-05
aaa(lp44
(lp45
F6031.0
aF89.2713893096
aF304.772281089
aF129461.0
aF5.1e-05
aa(lp46
F6107.0
aF108.085024898
aF306.351832438
aF368021.0
aF5.8e-05
aa(lp47
F6029.0
aF103.787886113
aF326.006585349
aF661645.0
aF9.7e-05
aa(lp48
F6079.0
aF74.975553985
aF318.463433047
aF246681.0
aF3.6e-05
aa(lp49
F6083.0
aF76.0382837186
aF340.420376302
aF399347.0
aF6.4e-05
aa(lp50
F6111.0
aF93.4973310868
aF344.590570899
aF753197.0
aF5.8e-05
aa(lp51
F6037.0
aF105.369854549
aF359.050126004
aF9519338.0
aF0.00011
aa(lp52
F6059.0
aF113.997715586
aF368.503452566
aF2846289.0
aF9.8e-05
aa(lp53
F6065.0
aF146.410389633
aF374.21707964
aF1545387.0
aF6.1e-05
aa(lp54
F6025.0
aF156.397958859
aF393.161127277
aF142361.0
aF5.6e-05
aa(lp55
F6073.0
aF129.2075529
aF387.064888184
aF2813833.0
aF6.6e-05
aa(lp56
F6071.0
aF148.402461892
aF350.061039619
aF1709434.0
aF7.7e-05
aa(lp57
F6027.0
aF136.048381588
aF306.102582286
aF17945.0
aF5.3e-05
aa(lp58
F32003.0
aF178.153492162
aF324.160586278
aF1375765.0
aF4.9e-05
aaa(lp59
(lp60
F5115.0
aF584.595501637
aF373.856308118
aF54469.0
aF4.1e-05
aa(lp61
F5145.0
aF608.976869458
aF377.384489538
aF67165.0
aF3.7e-05
aa(lp62
F5045.0
aF597.98983179
aF380.791319156
aF86014.0
aF4.1e-05
aa(lp63
F5119.0
aF598.676543754
aF389.524749021
aF361474.0
aF5.3e-05
aa(lp64
F5125.0
aF591.886598455
aF392.665686178
aF83529.0
aF4.2e-05
aa(lp65
F5085.0
aF606.85510121
aF389.179491963
aF52828.0
aF3.7e-05
aa(lp66
F5051.0
aF583.43809145
aF394.76336176
aF88068.0
aF4.2e-05
aa(lp67
F5059.0
aF586.230972329
aF400.562508466
aF30353.0
aF4.3e-05
aa(lp68
F5019.0
aF582.82199309
aF406.738228284
aF23546.0
aF4e-05
aa(lp69
F5069.0
aF607.58771765
aF401.432265146
aF84278.0
aF4e-05
aa(lp70
F5053.0
aF597.138270392
aF400.997891074
aF16464.0
aF3.8e-05
aa(lp71
F5039.0
aF593.624316627
aF408.471352209
aF9210.0
aF3.7e-05
aa(lp72
F5025.0
aF601.924132562
aF409.826156536
aF8571.0
aF3.7e-05
aa(lp73
F5103.0
aF589.665695621
aF417.666375232
aF28790.0
aF4.2e-05
aa(lp74
F5013.0
aF596.205605475
aF418.247258405
aF5744.0
aF3.8e-05
aa(lp75
F5011.0
aF602.879057538
aF419.949723516
aF12600.0
aF3.8e-05
aa(lp76
F40089.0
aF552.423979448
aF406.155717225
aF34402.0
aF3.7e-05
aa(lp77
F5061.0
aF567.056605255
aF406.453829102
aF14300.0
aF3.7e-05
aa(lp78
F5133.0
aF562.777508137
aF409.082763935
aF15757.0
aF3.6e-05
aa(lp79
F5081.0
aF563.079984877
aF415.547442088
aF13628.0
aF3.7e-05
aa(lp80
F48037.0
aF559.519073336
aF421.603444428
aF89306.0
aF4.4e-05
aa(lp81
F5057.0
aF573.597978096
aF414.376787659
aF23587.0
aF3.9e-05
aa(lp82
F5099.0
aF580.585778389
aF415.733444549
aF9955.0
aF3.8e-05
aa(lp83
F5091.0
aF569.58487356
aF424.873821877
aF40443.0
aF4.5e-05
aa(lp84
F5073.0
aF575.124844914
aF425.905378597
aF8559.0
aF3.8e-05
aa(lp85
F5027.0
aF582.485448502
aF426.537459662
aF25603.0
aF4.5e-05
aa(lp86
F48277.0
aF537.21604542
aF416.952275821
aF48499.0
aF3.6e-05
aa(lp87
F48449.0
aF548.846491614
aF427.621545193
aF28118.0
aF4.3e-05
aa(lp88
F48343.0
aF553.358888352
aF429.392896922
aF13048.0
aF3.8e-05
aa(lp89
F48063.0
aF549.047015742
aF432.965026585
aF11549.0
aF3.8e-05
aa(lp90
F48159.0
aF543.883529952
aF427.899206567
aF9458.0
aF3.7e-05
aa(lp91
F48223.0
aF537.339979578
aF428.787284079
aF31960.0
aF3.9e-05
aa(lp92
F48499.0
aF541.052103522
aF437.055023738
aF36752.0
aF3.8e-05
aa(lp93
F48459.0
aF549.476783545
aF438.231876608
aF35291.0
aF4.1e-05
aa(lp94
F48183.0
aF552.333188086
aF444.322743975
aF111379.0
aF5.5e-05
aa(lp95
F48423.0
aF542.731029941
aF446.457985602
aF174706.0
aF4.7e-05
aa(lp96
F48315.0
aF560.859210818
aF436.721701782
aF10941.0
aF4e-05
aa(lp97
F48203.0
aF560.270010669
aF442.325574621
aF62110.0
aF5e-05
aa(lp98
F48067.0
aF560.91992238
aF430.136403481
aF30438.0
aF4.2e-05
aa(lp99
F5003.0
aF610.743617256
aF425.889963233
aF24209.0
aF3.8e-05
aa(lp100
F22067.0
aF610.585709608
aF434.73496532
aF31021.0
aF4e-05
aa(lp101
F5139.0
aF595.14987863
aF427.226433206
aF45629.0
aF5.4e-05
aa(lp102
F22111.0
aF599.140985237
aF434.849559313
aF22803.0
aF3.9e-05
aa(lp103
F22027.0
aF587.270183901
aF435.598044452
aF16851.0
aF3.9e-05
aa(lp104
F22073.0
aF603.658034309
aF442.995210542
aF147250.0
aF4.4e-05
aa(lp105
F22061.0
aF594.502863732
aF440.566884907
aF42509.0
aF4.1e-05
aa(lp106
F22049.0
aF596.051448238
aF447.294086605
aF15397.0
aF3.8e-05
aa(lp107
F22119.0
aF580.717576668
aF438.079765146
aF41831.0
aF4.3e-05
aa(lp108
F22015.0
aF575.844790614
aF439.774115304
aF98310.0
aF4.9e-05
aa(lp109
F22017.0
aF570.826412839
aF442.202574191
aF252161.0
aF6.2e-05
aa(lp110
F22013.0
aF586.060409131
aF446.512021312
aF15752.0
aF3.8e-05
aa(lp111
F22081.0
aF580.582147686
aF452.840266614
aF9622.0
aF3.7e-05
aa(lp112
F22031.0
aF573.549239196
aF453.751673566
aF25494.0
aF4e-05
aa(lp113
F48365.0
aF562.161603376
aF451.397747537
aF22756.0
aF4.8e-05
aa(lp114
F48401.0
aF553.78831834
aF452.888630835
aF47372.0
aF4.2e-05
aa(lp115
F22085.0
aF577.254204574
aF465.281089751
aF23459.0
aF3.6e-05
aa(lp116
F48419.0
aF565.067174952
aF460.105796095
aF25224.0
aF3.9e-05
aa(lp117
F48405.0
aF564.83589419
aF469.0292693
aF8946.0
aF3.7e-05
aa(lp118
F48403.0
aF571.432866874
aF470.540950425
aF10469.0
aF3.6e-05
aa(lp119
F48347.0
aF556.624737292
aF464.98508096
aF59203.0
aF4.2e-05
aa(lp120
F48005.0
aF556.714508583
aF472.72712398
aF80130.0
aF4.3e-05
aa(lp121
F22127.0
aF594.710268222
aF455.838118598
aF16894.0
aF4e-05
aa(lp122
F22043.0
aF596.529216756
aF463.565907136
aF18698.0
aF3.8e-05
aa(lp123
F22069.0
aF586.010115197
aF460.762478165
aF39080.0
aF4.3e-05
aa(lp124
F22079.0
aF597.53331979
aF472.402985848
aF126337.0
aF4.5e-05
aa(lp125
F48181.0
aF515.439106937
aF417.227698761
aF110595.0
aF3.8e-05
aa(lp126
F48121.0
aF507.162082966
aF427.427399729
aF432976.0
aF4.5e-05
aa(lp127
F48085.0
aF517.70778434
aF427.895646823
aF491675.0
aF4.8e-05
aa(lp128
F48397.0
aF520.806427094
aF434.515377055
aF43080.0
aF3.7e-05
aa(lp129
F48113.0
aF513.657901701
aF437.682966844
aF2218899.0
aF5.4e-05
aa(lp130
F48257.0
aF523.224118812
aF441.585090988
aF71313.0
aF3.6e-05
aa(lp131
F48439.0
aF503.673815634
aF437.477028749
aF1446219.0
aF5e-05
aa(lp132
F48251.0
aF502.159909348
aF446.449444445
aF126811.0
aF3.8e-05
aa(lp133
F48139.0
aF513.526874888
aF447.261695029
aF111360.0
aF3.7e-05
aa(lp134
F48309.0
aF505.138479584
aF465.639934637
aF213517.0
aF4e-05
aa(lp135
F48491.0
aF496.783897824
aF487.085209944
aF249967.0
aF4.1e-05
aa(lp136
F48453.0
aF493.032076052
aF493.597339677
aF812280.0
aF5.2e-05
aa(lp137
F48027.0
aF499.448992208
aF477.854505844
aF237974.0
aF3.7e-05
aa(lp138
F48041.0
aF522.88823653
aF487.351397054
aF152415.0
aF4.6e-05
aa(lp139
F48029.0
aF477.886663525
aF514.095891984
aF1392931.0
aF5e-05
aa(lp140
F48213.0
aF530.821834178
aF450.291723505
aF73277.0
aF3.6e-05
aa(lp141
F48073.0
aF545.489858782
aF459.625545141
aF46659.0
aF3.9e-05
aa(lp142
F48001.0
aF535.786278492
aF459.992252895
aF55109.0
aF3.9e-05
aa(lp143
F48225.0
aF540.055149415
aF471.712414401
aF23185.0
aF3.6e-05
aa(lp144
F48455.0
aF546.140669282
aF476.499660527
aF13779.0
aF3.7e-05
aa(lp145
F48471.0
aF537.557875038
aF484.487362861
aF61758.0
aF3.8e-05
aa(lp146
F48373.0
aF552.477270065
aF483.036552402
aF41133.0
aF3.9e-05
aa(lp147
F48457.0
aF561.327986555
aF483.918020524
aF20871.0
aF3.8e-05
aa(lp148
F22115.0
aF584.575185092
aF475.698087708
aF52531.0
aF3.8e-05
aa(lp149
F48241.0
aF567.517178121
aF484.445884401
aF35604.0
aF4e-05
aa(lp150
F48351.0
aF573.589664869
aF484.516991217
aF15072.0
aF3.7e-05
aa(lp151
F22011.0
aF581.756740126
aF486.885402982
aF32986.0
aF3.6e-05
aa(lp152
F22019.0
aF581.939655084
aF495.936376354
aF183577.0
aF4.4e-05
aa(lp153
F48199.0
aF561.27392415
aF493.973459885
aF48073.0
aF4e-05
aa(lp154
F48361.0
aF571.064681764
aF498.867855628
aF84966.0
aF4.6e-05
aa(lp155
F48245.0
aF565.746895809
aF504.541799993
aF252051.0
aF5.7e-05
aa(lp156
F48339.0
aF538.471384388
aF494.899576138
aF293768.0
aF4.5e-05
aa(lp157
F48201.0
aF540.54731652
aF504.62993865
aF3400578.0
aF6e-05
aa(lp158
F48167.0
aF552.525168771
aF515.298394786
aF250158.0
aF4e-05
aa(lp159
F48157.0
aF533.434165736
aF513.008691943
aF354452.0
aF4.6e-05
aa(lp160
F48039.0
aF539.988833576
aF520.509888444
aF241767.0
aF3.8e-05
aaa(lp161
(lp162
F12089.0
aF811.847805511
aF467.370424168
aF57663.0
aF3.7e-05
aa(lp163
F12031.0
aF815.145119735
aF473.114295395
aF778879.0
aF4.9e-05
aa(lp164
F12109.0
aF821.162680566
aF481.194301565
aF123135.0
aF3.6e-05
aa(lp165
F12019.0
aF812.760924762
aF481.531359294
aF140814.0
aF4.6e-05
aa(lp166
F12107.0
aF816.217255768
aF489.979544787
aF70423.0
aF4e-05
aa(lp167
F12023.0
aF796.544243535
aF477.588016437
aF56513.0
aF5e-05
aa(lp168
F12121.0
aF789.510736641
aF479.976086626
aF34844.0
aF3.7e-05
aa(lp169
F12125.0
aF802.75249594
aF481.234615532
aF13442.0
aF4e-05
aa(lp170
F12007.0
aF806.736259696
aF483.319883706
aF26088.0
aF3.9e-05
aa(lp171
F12001.0
aF803.961761829
aF489.850692775
aF217955.0
aF4.5e-05
aa(lp172
F12041.0
aF794.901963072
aF489.869287867
aF14437.0
aF3.6e-05
aa(lp173
F12105.0
aF823.189521658
aF527.49503955
aF483924.0
aF4e-05
aa(lp174
F12057.0
aF810.083518173
aF529.957501469
aF998948.0
aF4.7e-05
aa(lp175
F12103.0
aF802.477599536
aF530.790749691
aF921482.0
aF4.5e-05
aa(lp176
F12081.0
aF811.952211238
aF540.470074422
aF264002.0
aF3.9e-05
aa(lp177
F12115.0
aF812.59196274
aF546.551630755
aF325957.0
aF4e-05
aa(lp178
F12015.0
aF820.829889027
aF552.015465126
aF141627.0
aF3.8e-05
aa(lp179
F12071.0
aF822.736368501
aF559.319167615
aF440888.0
aF4.7e-05
aa(lp180
F12083.0
aF810.767972881
aF499.513529656
aF258916.0
aF4.3e-05
aa(lp181
F12069.0
aF819.993020835
aF508.151672787
aF210528.0
aF4e-05
aa(lp182
F12119.0
aF812.531572775
aF511.697794517
aF53345.0
aF4.2e-05
aa(lp183
F12017.0
aF804.163327294
aF509.073872819
aF118085.0
aF3.7e-05
aa(lp184
F12053.0
aF806.669639534
aF515.743600145
aF130802.0
aF4e-05
aa(lp185
F12101.0
aF807.37572525
aF521.20381291
aF344765.0
aF4e-05
aa(lp186
F12127.0
aF829.480036606
aF500.393215504
aF443343.0
aF4.3e-05
aa(lp187
F12117.0
aF829.684398031
aF508.399477043
aF365196.0
aF4.9e-05
aa(lp188
F12095.0
aF828.477422871
aF512.999289781
aF896344.0
aF5.2e-05
aa(lp189
F12009.0
aF841.322387652
aF516.489861349
aF476230.0
aF3.9e-05
aa(lp190
F12097.0
aF833.272541527
aF523.052424046
aF172493.0
aF4e-05
aa(lp191
F12021.0
aF836.541448838
aF567.52642265
aF251377.0
aF4.2e-05
aa(lp192
F12011.0
aF854.318125011
aF564.174521982
aF1623018.0
aF5e-05
aa(lp193
F12086.0
aF855.717845944
aF576.450702277
aF2253362.0
aF4.9e-05
aa(lp194
F12085.0
aF851.488938769
aF543.179935627
aF126731.0
aF4e-05
aa(lp195
F12099.0
aF852.886370359
aF552.951546188
aF1131184.0
aF5.1e-05
aaa(lp196
(lp197
F36055.0
aF836.61003254
aF165.444162352
aF735343.0
aF4.4e-05
aa(lp198
F36063.0
aF818.781456529
aF167.301913187
aF219846.0
aF4e-05
aa(lp199
F36029.0
aF820.38582573
aF177.013330392
aF950265.0
aF5e-05
aa(lp200
F36065.0
aF873.342323758
aF155.239766954
aF235469.0
aF3.6e-05
aa(lp201
F36067.0
aF861.879709213
aF163.501765471
aF458336.0
aF4.3e-05
aa(lp202
F36109.0
aF859.632655229
aF176.764611363
aF96501.0
aF3.9e-05
aa(lp203
F36015.0
aF856.777256919
aF184.965185971
aF91070.0
aF3.7e-05
aa(lp204
F36007.0
aF872.62799743
aF181.205967193
aF200536.0
aF3.8e-05
aa(lp205
F36027.0
aF909.217756632
aF182.362939776
aF280150.0
aF4.1e-05
aa(lp206
F36079.0
aF910.914101605
aF190.332224
aF95745.0
aF4.8e-05
aa(lp207
F9001.0
aF917.147792831
aF191.892113077
aF882567.0
aF5.3e-05
aa(lp208
F36071.0
aF901.470346789
aF192.905092004
aF341367.0
aF3.7e-05
aa(lp209
F34019.0
aF895.776095554
aF214.493968164
aF121989.0
aF3.6e-05
aa(lp210
F34035.0
aF900.936846358
aF213.258627617
aF297490.0
aF4.4e-05
aa(lp211
F34023.0
aF904.976453741
aF215.001458637
aF750162.0
aF5.9e-05
aa(lp212
F34021.0
aF900.837767215
aF220.161475984
aF350761.0
aF4.6e-05
aa(lp213
F34025.0
aF908.717735412
aF218.90036961
aF615301.0
aF4.3e-05
aa(lp214
F34029.0
aF910.212762975
aF227.878526229
aF510916.0
aF3.6e-05
aa(lp215
F34005.0
aF903.696809122
aF229.406192432
aF423394.0
aF4.6e-05
aa(lp216
F36119.0
aF912.141547823
aF196.592589736
aF923459.0
aF6.5e-05
aa(lp217
F36087.0
aF907.86300402
aF197.579715272
aF286753.0
aF4.9e-05
aa(lp218
F34031.0
aF904.161746346
aF201.712206531
aF489049.0
aF6.3e-05
aa(lp219
F34003.0
aF907.896066895
aF202.302470427
aF884118.0
aF6.9e-05
aa(lp220
F36059.0
aF917.384980291
aF205.43647538
aF1334544.0
aF7.6e-05
aa(lp221
F36005.0
aF912.315497328
aF203.674106811
aF1332650.0
aF0.00011
aa(lp222
F36061.0
aF911.072622034
aF205.783086757
aF1537195.0
aF0.00015
aa(lp223
F36081.0
aF913.462051588
aF207.615750359
aF2229379.0
aF8.9e-05
aa(lp224
F36047.0
aF911.595580089
aF208.928374072
aF2465326.0
aF9.8e-05
aa(lp225
F34039.0
aF905.587082153
aF210.045085725
aF522541.0
aF7.3e-05
aa(lp226
F36085.0
aF908.749199508
aF211.307161341
aF443728.0
aF7e-05
aa(lp227
F34013.0
aF906.236730753
aF206.977429459
aF793633.0
aF7.1e-05
aa(lp228
F34017.0
aF909.08042421
aF207.462937763
aF608975.0
aF9.1e-05
aa(lp229
F34027.0
aF900.422787491
aF206.429642411
aF470212.0
aF4.4e-05
aa(lp230
F36103.0
aF929.241649488
aF199.278463003
aF1419369.0
aF6.3e-05
aa(lp231
F34041.0
aF892.57602736
aF208.568148377
aF102437.0
aF3.6e-05
aa(lp232
F42095.0
aF888.032793212
aF211.523135712
aF267066.0
aF4e-05
aa(lp233
F42077.0
aF883.777299339
aF216.084421606
aF312090.0
aF4.2e-05
aa(lp234
F42011.0
aF878.575486588
aF221.678319842
aF373638.0
aF4.6e-05
aa(lp235
F42017.0
aF893.876004364
aF220.699090935
aF597635.0
aF4.3e-05
aa(lp236
F42091.0
aF889.965859899
aF224.504820997
aF750097.0
aF4.5e-05
aa(lp237
F42029.0
aF884.246408159
aF231.677052239
aF433501.0
aF4.3e-05
aa(lp238
F42101.0
aF894.72914873
aF227.900547575
aF1517550.0
aF5.8e-05
aa(lp239
F42045.0
aF890.848103047
aF231.287395353
aF550864.0
aF5.2e-05
aa(lp240
F34007.0
aF899.061431482
aF232.054232622
aF508932.0
aF5.7e-05
aa(lp241
F34015.0
aF896.198567101
aF234.820361406
aF254673.0
aF4.4e-05
aa(lp242
F34033.0
aF893.786446442
aF238.735608619
aF64285.0
aF4e-05
aa(lp243
F10003.0
aF888.26796027
aF239.785084878
aF500265.0
aF4.9e-05
aa(lp244
F24015.0
aF882.761142201
aF241.149588276
aF85951.0
aF3.7e-05
aa(lp245
F24025.0
aF876.595690503
aF242.900377968
aF218590.0
aF4.6e-05
aa(lp246
F42075.0
aF870.384458732
aF224.7967306
aF120327.0
aF3.6e-05
aa(lp247
F42043.0
aF864.665065587
aF224.87069308
aF251798.0
aF4.4e-05
aa(lp248
F42071.0
aF875.261401938
aF231.478866226
aF470658.0
aF4.4e-05
aa(lp249
F42133.0
aF867.856914104
aF236.035603334
aF381751.0
aF4.4e-05
aa(lp250
F42041.0
aF857.429295543
aF232.310356065
aF213674.0
aF3.9e-05
aa(lp251
F36113.0
aF898.184566698
aF142.365720787
aF63303.0
aF3.8e-05
aa(lp252
F36091.0
aF900.126868657
aF152.338833095
aF200635.0
aF4.3e-05
aa(lp253
F36083.0
aF907.985922231
aF160.259081442
aF152538.0
aF4.7e-05
aa(lp254
F36093.0
aF898.592342283
aF159.585280808
aF146555.0
aF4.2e-05
aa(lp255
F36001.0
aF900.893220363
aF164.489226174
aF294565.0
aF4.9e-05
aa(lp256
F33015.0
aF945.862623759
aF143.495453535
aF277359.0
aF4.3e-05
aa(lp257
F25009.0
aF949.835116877
aF150.304382082
aF723419.0
aF4.2e-05
aa(lp258
F33011.0
aF936.826960243
aF147.991772374
aF380841.0
aF5e-05
aa(lp259
F25017.0
aF943.405755498
aF156.504310828
aF1465396.0
aF5.6e-05
aa(lp260
F25025.0
aF950.299079197
aF158.007070966
aF689807.0
aF7e-05
aa(lp261
F25021.0
aF948.811505542
aF162.842169307
aF650308.0
aF5.3e-05
aa(lp262
F25027.0
aF936.54063466
aF161.738716517
aF750963.0
aF4.1e-05
aa(lp263
F25023.0
aF957.157407058
aF165.788263534
aF472822.0
aF4.4e-05
aa(lp264
F25005.0
aF953.230998078
aF170.843779875
aF534678.0
aF4.3e-05
aa(lp265
F25011.0
aF923.761310718
aF159.35147786
aF71535.0
aF3.7e-05
aa(lp266
F25015.0
aF923.51496257
aF165.065795331
aF152251.0
aF4.6e-05
aa(lp267
F25013.0
aF925.818389384
aF169.274417202
aF456228.0
aF5.2e-05
aa(lp268
F44007.0
aF944.956217023
aF171.232472884
aF621602.0
aF4.4e-05
aa(lp269
F9015.0
aF938.079587104
aF173.799449769
aF109091.0
aF4.1e-05
aa(lp270
F9013.0
aF932.609837236
aF174.394154191
aF136364.0
aF5e-05
aa(lp271
F9011.0
aF938.027522345
aF181.994248357
aF259088.0
aF4.5e-05
aa(lp272
F9003.0
aF925.917212741
aF177.152290276
aF857183.0
aF5.7e-05
aa(lp273
F9005.0
aF917.693447363
aF179.72354771
aF182193.0
aF4.8e-05
aa(lp274
F9007.0
aF931.146412937
aF184.643328414
aF155071.0
aF5.1e-05
aa(lp275
F9009.0
aF924.915452791
aF187.557375239
aF824008.0
aF5.4e-05
aa(lp276
F23001.0
aF953.161637139
aF113.071731105
aF103793.0
aF3.8e-05
aa(lp277
F23005.0
aF953.581789787
aF121.416657535
aF265612.0
aF4.3e-05
aa(lp278
F23031.0
aF949.424580505
aF131.293401632
aF186742.0
aF3.7e-05
aa(lp279
F33017.0
aF945.16352311
aF136.040144206
aF112233.0
aF3.8e-05
aa(lp280
F33001.0
aF937.584727718
aF133.112024186
aF56325.0
aF4e-05
aa(lp281
F33013.0
aF934.864913999
aF139.10231428
aF136225.0
aF3.9e-05
aaa(lp282
(lp283
F26137.0
aF715.91250024
aF140.103479768
aF23301.0
aF3.6e-05
aa(lp284
F26121.0
aF695.162442139
aF182.946298516
aF170200.0
aF3.7e-05
aa(lp285
F26081.0
aF705.493026112
aF187.978211881
aF574335.0
aF4.3e-05
aa(lp286
F26077.0
aF707.824524607
aF206.202905323
aF238603.0
aF3.7e-05
aa(lp287
F26163.0
aF746.37046732
aF200.570021537
aF2061162.0
aF6.4e-05
aa(lp288
F26099.0
aF750.610280372
aF190.468671453
aF788149.0
aF5.1e-05
aa(lp289
F26125.0
aF743.036942153
aF192.129690868
aF1194156.0
aF5.7e-05
aa(lp290
F26049.0
aF736.780026303
aF184.962747158
aF436141.0
aF3.7e-05
aa(lp291
F26093.0
aF734.289678366
aF194.611800654
aF156951.0
aF3.6e-05
aa(lp292
F26065.0
aF726.486277
aF195.744659373
aF279320.0
aF3.7e-05
aa(lp293
F26161.0
aF736.576247651
aF202.564112075
aF322895.0
aF4.4e-05
aa(lp294
F39095.0
aF742.473618138
aF216.811437951
aF455054.0
aF4.6e-05
aa(lp295
F26115.0
aF742.718373952
aF209.392897038
aF145945.0
aF3.8e-05
aa(lp296
F39085.0
aF782.96674826
aF208.943488088
aF227511.0
aF3.9e-05
aa(lp297
F39035.0
aF776.351457758
aF216.558042612
aF1393978.0
aF5.8e-05
aa(lp298
F39153.0
aF779.487638737
aF222.564404641
aF542899.0
aF4.2e-05
aa(lp299
F39093.0
aF768.612147489
aF220.831214872
aF284664.0
aF3.9e-05
aa(lp300
F39155.0
aF792.255470261
aF216.591547977
aF225116.0
aF3.7e-05
aa(lp301
F39099.0
aF792.92745034
aF223.712729549
aF257555.0
aF3.7e-05
aa(lp302
F39151.0
aF783.660515017
aF229.907533647
aF378098.0
aF3.8e-05
aa(lp303
F42129.0
aF818.399310859
aF235.713111533
aF369993.0
aF4.1e-05
aa(lp304
F42007.0
aF801.681760571
aF230.112143407
aF181412.0
aF3.8e-05
aa(lp305
F42003.0
aF809.003419092
aF233.899638663
aF1281666.0
aF6.1e-05
aa(lp306
F54029.0
aF798.44191324
aF234.642323573
aF32667.0
aF3.6e-05
aa(lp307
F39081.0
aF795.455022999
aF238.299822097
aF73894.0
aF4.5e-05
aa(lp308
F54009.0
aF799.221537984
aF240.153315109
aF25447.0
aF7.7e-05
aa(lp309
F42125.0
aF805.039247879
aF241.104968724
aF202897.0
aF4.1e-05
aa(lp310
F39041.0
aF756.980073937
aF246.403520739
aF109989.0
aF3.8e-05
aa(lp311
F39049.0
aF758.062157993
aF253.603273009
aF1068978.0
aF5.2e-05
aa(lp312
F39089.0
aF766.618971931
aF249.419639599
aF145491.0
aF3.6e-05
aa(lp313
F39045.0
aF765.36060766
aF257.6500183
aF122759.0
aF3.6e-05
aa(lp314
F39113.0
aF736.244959233
aF261.464240726
aF559062.0
aF4.4e-05
aa(lp315
F39057.0
aF743.503798837
aF262.12512225
aF147886.0
aF3.7e-05
aa(lp316
F39165.0
aF739.101653137
aF268.849444542
aF158383.0
aF4.2e-05
aa(lp317
F39017.0
aF731.844357783
aF269.494670001
aF332807.0
aF4.9e-05
aa(lp318
F39025.0
aF740.693716946
aF277.79871574
aF177977.0
aF4.1e-05
aa(lp319
F39061.0
aF733.263799261
aF275.315430247
aF845303.0
aF5.4e-05
aa(lp320
F21037.0
aF736.715557664
aF280.441233537
aF88616.0
aF4.4e-05
aa(lp321
F21117.0
aF734.066615163
aF281.167681124
aF151464.0
aF5e-05
aa(lp322
F21015.0
aF730.703307116
aF281.066903101
aF85991.0
aF4e-05
aa(lp323
F39167.0
aF786.515616641
aF261.956180498
aF63251.0
aF3.7e-05
aa(lp324
F54107.0
aF786.917670324
aF267.276230968
aF87986.0
aF4e-05
aa(lp325
F39145.0
aF761.99163771
aF280.881161327
aF79195.0
aF3.7e-05
aa(lp326
F21089.0
aF764.013982227
aF286.210625745
aF36891.0
aF4e-05
aa(lp327
F39087.0
aF770.625409557
aF283.93917465
aF62319.0
aF4.6e-05
aa(lp328
F21019.0
aF768.726553092
aF290.270551648
aF49752.0
aF5.8e-05
aa(lp329
F54011.0
aF776.402197475
aF287.841928761
aF96784.0
aF4.4e-05
aa(lp330
F54099.0
aF773.995328811
aF294.467618066
aF42903.0
aF3.8e-05
aa(lp331
F54039.0
aF789.786928856
aF287.714693693
aF200073.0
aF4.8e-05
aa(lp332
F21067.0
aF738.000675961
aF302.005037855
aF260512.0
aF4.8e-05
aa(lp333
F21049.0
aF743.811228592
aF302.769941998
aF33144.0
aF3.6e-05
aa(lp334
F21167.0
aF731.011314971
aF307.928097049
aF20817.0
aF4e-05
aa(lp335
F21193.0
aF762.479894326
aF317.57684323
aF29390.0
aF3.7e-05
aa(lp336
F21125.0
aF746.851694407
aF322.613236342
aF52715.0
aF3.7e-05
aa(lp337
F18157.0
aF688.727608664
aF251.819682317
aF148955.0
aF3.7e-05
aa(lp338
F18057.0
aF704.212911652
aF257.652976468
aF182740.0
aF3.8e-05
aa(lp339
F18097.0
aF703.47637833
aF264.614798668
aF860454.0
aF4.8e-05
aa(lp340
F18081.0
aF704.801409471
aF271.349863448
aF115209.0
aF3.7e-05
aa(lp341
F18105.0
aF698.415529714
aF279.88396951
aF120563.0
aF3.6e-05
aa(lp342
F18167.0
aF682.08038418
aF274.936493776
aF105848.0
aF3.6e-05
aa(lp343
F18019.0
aF714.158346298
aF294.370108974
aF96472.0
aF4.5e-05
aa(lp344
F18043.0
aF711.172429121
aF298.207546077
aF70823.0
aF4.3e-05
aa(lp345
F21111.0
aF715.347723878
aF301.167740487
aF693604.0
aF5.9e-05
aa(lp346
F21029.0
aF716.256859103
aF305.598543338
aF61236.0
aF3.7e-05
aa(lp347
F18163.0
aF681.57724792
aF307.709105541
aF171922.0
aF4.1e-05
aa(lp348
F21059.0
aF690.782956295
aF313.546912333
aF91545.0
aF3.8e-05
aaa(lp349
(lp350
F24001.0
aF834.528507681
aF249.862506444
aF74930.0
aF4.8e-05
aa(lp351
F24043.0
aF849.08430905
aF247.089766046
aF131923.0
aF4.6e-05
aa(lp352
F51069.0
aF844.022021315
aF257.326218757
aF59209.0
aF3.9e-05
aa(lp353
F51840.0
aF845.843602685
aF258.214178983
aF23585.0
aF7.1e-05
aa(lp354
F24041.0
aF883.574838645
aF260.315683429
aF33812.0
aF3.6e-05
aa(lp355
F24005.0
aF871.921241442
aF246.932531615
aF754292.0
aF6.1e-05
aa(lp356
F24510.0
aF872.946822486
aF249.834427518
aF651154.0
aF7.4e-05
aa(lp357
F24013.0
aF864.311160936
aF245.442625747
aF150897.0
aF4.2e-05
aa(lp358
F24021.0
aF858.130790832
aF248.37974611
aF195277.0
aF5e-05
aa(lp359
F24027.0
aF867.127763298
aF252.141340019
aF247842.0
aF6e-05
aa(lp360
F24031.0
aF863.180208628
aF255.65657011
aF873341.0
aF6.5e-05
aa(lp361
F24003.0
aF874.299504257
aF257.092978322
aF489656.0
aF5.3e-05
aa(lp362
F24033.0
aF870.786325575
aF261.829970016
aF801515.0
aF6.4e-05
aa(lp363
F51107.0
aF855.815074611
aF258.409034617
aF169599.0
aF4.9e-05
aa(lp364
F11001.0
aF867.470401202
aF260.460974222
aF572059.0
aF7.7e-05
aa(lp365
F51013.0
aF865.681962839
aF261.222875114
aF189453.0
aF7.7e-05
aa(lp366
F51610.0
aF864.078108667
aF261.655667801
aF10377.0
aF6.9e-05
aa(lp367
F51510.0
aF866.572477724
aF262.734686855
aF128283.0
aF6.8e-05
aa(lp368
F51059.0
aF863.064397845
aF262.414412378
aF969749.0
aF5.7e-05
aa(lp369
F51600.0
aF862.256446343
aF262.782164265
aF21498.0
aF5.3e-05
aa(lp370
F51685.0
aF860.344274735
aF264.983409643
aF10290.0
aF4.8e-05
aa(lp371
F51153.0
aF859.756240659
aF265.893152114
aF280813.0
aF4.9e-05
aa(lp372
F51683.0
aF859.478597162
aF265.957478667
aF35135.0
aF4.7e-05
aa(lp373
F24017.0
aF870.031328543
aF269.646113201
aF120546.0
aF4.3e-05
aa(lp374
F51179.0
aF862.187428575
aF273.408238678
aF92446.0
aF4e-05
aa(lp375
F51630.0
aF861.833345286
aF275.583093594
aF19279.0
aF4.8e-05
aa(lp376
F51177.0
aF859.294497126
aF279.132194912
aF90395.0
aF3.9e-05
aa(lp377
F51660.0
aF836.595959983
aF277.430066898
aF40468.0
aF5.2e-05
aa(lp378
F51540.0
aF845.239184424
aF285.286609195
aF45049.0
aF5.4e-05
aa(lp379
F51003.0
aF844.130028982
aF285.404519537
aF79236.0
aF3.8e-05
aa(lp380
F51820.0
aF837.346467474
aF285.851438947
aF19520.0
aF5.8e-05
aa(lp381
F51075.0
aF857.214775552
aF290.679247238
aF16863.0
aF3.6e-05
aa(lp382
F51085.0
aF864.408961095
aF288.394572842
aF86320.0
aF4.6e-05
aa(lp383
F51087.0
aF866.389610525
aF292.780704494
aF262300.0
aF6.3e-05
aa(lp384
F51760.0
aF865.424050159
aF293.735963553
aF197790.0
aF8.6e-05
aa(lp385
F51041.0
aF864.751974086
aF297.511130095
aF259903.0
aF5.2e-05
aa(lp386
F51670.0
aF869.945850178
aF298.459424039
aF22354.0
aF5.5e-05
aa(lp387
F51570.0
aF868.048530719
aF299.360459202
aF16897.0
aF5.6e-05
aa(lp388
F51730.0
aF868.570007986
aF300.748068057
aF33740.0
aF5.4e-05
aa(lp389
F51149.0
aF871.264106741
aF300.564158915
aF33047.0
aF3.8e-05
aa(lp390
F51053.0
aF864.947360993
aF304.471893711
aF24533.0
aF3.7e-05
aa(lp391
F51700.0
aF884.986697443
aF300.108812755
aF180150.0
aF4.6e-05
aa(lp392
F51650.0
aF888.170749548
aF300.381712282
aF146437.0
aF4.6e-05
aa(lp393
F51710.0
aF890.538449993
aF303.826879654
aF234403.0
aF4.9e-05
aa(lp394
F51740.0
aF888.815032525
aF304.804068559
aF100565.0
aF4.5e-05
aa(lp395
F51550.0
aF890.355582186
aF308.649262408
aF199184.0
aF4.1e-05
aa(lp396
F51810.0
aF894.980475893
aF306.515501634
aF425257.0
aF3.8e-05
aa(lp397
F51520.0
aF784.05333332
aF328.847863787
aF17367.0
aF5.6e-05
aa(lp398
F47163.0
aF782.499804827
aF331.593361246
aF153048.0
aF4.7e-05
aa(lp399
F47179.0
aF778.737234615
aF337.389191007
aF107198.0
aF4e-05
aa(lp400
F47063.0
aF765.194286586
aF341.835899147
aF58128.0
aF4.1e-05
aa(lp401
F51530.0
aF830.37792646
aF295.015734292
aF6349.0
aF3.6e-05
aa(lp402
F51009.0
aF835.250281859
aF297.345275112
aF31894.0
aF3.6e-05
aa(lp403
F51680.0
aF835.264653899
aF302.326633095
aF65269.0
aF5.8e-05
aa(lp404
F51031.0
aF837.259782401
aF306.658912935
aF51078.0
aF3.9e-05
aa(lp405
F51515.0
aF829.535165128
aF304.77544828
aF6299.0
aF4.7e-05
aa(lp406
F51011.0
aF842.311430153
aF301.461057702
aF13705.0
aF3.6e-05
aa(lp407
F51580.0
aF819.41367198
aF296.037708774
aF6303.0
aF4.2e-05
aa(lp408
F51023.0
aF823.640347715
aF300.773024458
aF30496.0
aF3.6e-05
aa(lp409
F51770.0
aF821.912162221
aF307.548990323
aF94911.0
aF6.5e-05
aa(lp410
F51775.0
aF820.111751617
aF307.695502162
aF24747.0
aF5.8e-05
aa(lp411
F51161.0
aF820.49953559
aF307.816533009
aF85778.0
aF5.4e-05
aa(lp412
F51067.0
aF823.926272217
aF314.120576729
aF47286.0
aF3.6e-05
aa(lp413
F51121.0
aF814.293024524
aF311.500075735
aF83629.0
aF3.7e-05
aa(lp414
F51750.0
aF811.690750985
aF312.898714856
aF15859.0
aF4.6e-05
aa(lp415
F51640.0
aF806.823088186
aF324.555032883
aF6837.0
aF5.2e-05
aa(lp416
F37001.0
aF836.979192534
aF334.065175977
aF130800.0
aF4.1e-05
aa(lp417
F37081.0
aF829.726844142
aF334.637483646
aF421048.0
aF4.8e-05
aa(lp418
F37067.0
aF820.943608063
aF334.992058869
aF306067.0
aF4.3e-05
aa(lp419
F37057.0
aF823.18698731
aF342.886324895
aF147246.0
aF4.6e-05
aa(lp420
F37151.0
aF830.838692674
aF343.221314224
aF130454.0
aF4.2e-05
aa(lp421
F51590.0
aF834.603738103
aF321.684114822
aF48411.0
aF4.8e-05
aa(lp422
F51089.0
aF826.150298041
aF320.93114958
aF57930.0
aF3.8e-05
aa(lp423
F51690.0
aF826.020074281
aF321.016553783
aF15416.0
aF4.9e-05
aa(lp424
F37157.0
aF828.731314272
aF327.280122283
aF91928.0
aF3.6e-05
aa(lp425
F51595.0
aF868.072034995
aF313.157738101
aF5665.0
aF4.8e-05
aa(lp426
F37083.0
aF868.04926125
aF323.425496976
aF57370.0
aF3.8e-05
aa(lp427
F37181.0
aF853.639263851
aF323.461426203
aF42954.0
aF3.6e-05
aa(lp428
F37063.0
aF846.685568132
aF332.534669696
aF223314.0
aF4.3e-05
aa(lp429
F37135.0
aF842.130354763
aF332.808970798
aF118227.0
aF4e-05
aa(lp430
F37127.0
aF863.352636779
aF331.004800763
aF87420.0
aF3.6e-05
aa(lp431
F37195.0
aF865.621962378
aF337.032554438
aF73814.0
aF3.6e-05
aa(lp432
F37183.0
aF851.770738374
aF337.386332923
aF627846.0
aF4.4e-05
aa(lp433
F37101.0
aF858.154786554
aF342.479711829
aF121965.0
aF3.7e-05
aa(lp434
F37059.0
aF816.457692023
aF340.845340526
aF34835.0
aF3.7e-05
aa(lp435
F37097.0
aF810.767786404
aF344.694579502
aF122660.0
aF4e-05
aa(lp436
F37159.0
aF818.134582851
aF347.120648891
aF130340.0
aF4.3e-05
aa(lp437
F37025.0
aF818.35071393
aF352.864665547
aF131063.0
aF4.7e-05
aa(lp438
F37119.0
aF813.724315147
aF356.853362811
aF695454.0
aF5.6e-05
aa(lp439
F37035.0
aF804.833493204
aF348.934091023
aF141685.0
aF4.4e-05
aa(lp440
F37109.0
aF805.318257937
aF352.665447362
aF63780.0
aF4.1e-05
aa(lp441
F37071.0
aF806.573724958
aF356.877472978
aF190365.0
aF4.8e-05
aa(lp442
F37161.0
aF792.491617262
aF356.662420754
aF62899.0
aF3.7e-05
aa(lp443
F37045.0
aF799.604058396
aF357.140706673
aF96287.0
aF4.2e-05
aa(lp444
F45021.0
aF799.814328103
aF363.931851279
aF52537.0
aF4.2e-05
aa(lp445
F45083.0
aF793.239375577
aF367.754402204
aF253791.0
aF4.8e-05
aa(lp446
F37179.0
aF820.192244626
aF361.969456737
aF123677.0
aF4.2e-05
aa(lp447
F45057.0
aF817.371635812
aF368.826541092
aF61351.0
aF3.9e-05
aa(lp448
F45091.0
aF807.886971209
aF364.469906345
aF164614.0
aF4.7e-05
aa(lp449
F45023.0
aF809.487890868
aF370.855873214
aF34068.0
aF4e-05
aa(lp450
F45039.0
aF811.179053823
aF377.382614851
aF23454.0
aF3.6e-05
aa(lp451
F37037.0
aF841.644840393
aF341.679621011
aF49329.0
aF3.6e-05
aa(lp452
F37105.0
aF843.742938053
aF346.401310842
aF49040.0
aF3.9e-05
aa(lp453
F37125.0
aF839.05551573
aF351.31574651
aF74769.0
aF3.9e-05
aa(lp454
F37085.0
aF849.635024358
aF348.096145777
aF91025.0
aF3.6e-05
aa(lp455
F37051.0
aF852.249290302
aF355.347130485
aF302963.0
aF4.3e-05
aa(lp456
F37123.0
aF830.551236302
aF352.327901665
aF26822.0
aF4e-05
aa(lp457
F37167.0
aF824.247809076
aF353.945610477
aF58100.0
aF3.9e-05
aa(lp458
F37153.0
aF834.147881371
aF359.129856528
aF46564.0
aF4e-05
aa(lp459
F37007.0
aF828.156992406
aF360.96235231
aF25275.0
aF3.9e-05
aa(lp460
F37093.0
aF844.170410386
aF357.330493533
aF33646.0
aF4.3e-05
aa(lp461
F37165.0
aF840.001098356
aF362.322650669
aF35998.0
aF4.2e-05
aa(lp462
F37155.0
aF848.136912186
aF365.602562109
aF123339.0
aF3.7e-05
aa(lp463
F45069.0
aF837.438235328
aF368.70191477
aF28818.0
aF3.7e-05
aa(lp464
F45033.0
aF844.223066505
aF372.277836844
aF30722.0
aF3.7e-05
aa(lp465
F45025.0
aF827.904385987
aF369.052383126
aF42768.0
aF3.9e-05
aa(lp466
F45031.0
aF833.172787248
aF375.611568412
aF67394.0
aF3.9e-05
aa(lp467
F45055.0
aF821.247350765
aF376.885191172
aF52647.0
aF4e-05
aa(lp468
F45085.0
aF827.480780355
aF386.150447453
aF104646.0
aF4e-05
aa(lp469
F45041.0
aF839.813719018
aF381.947234171
aF125761.0
aF3.7e-05
aaa(lp470
(lp471
F16027.0
aF183.78623184
aF146.356327081
aF131441.0
aF3.6e-05
aa(lp472
F16001.0
aF190.480495469
aF151.739073898
aF300904.0
aF4.3e-05
aa(lp473
F49011.0
aF249.345171291
aF222.016700294
aF238994.0
aF3.8e-05
aa(lp474
F49035.0
aF251.051363199
aF229.473422044
aF898387.0
aF4.3e-05
aa(lp475
F16019.0
aF265.618736149
aF167.524476596
aF82522.0
aF3.9e-05
aaa(lp476
(lp477
F48141.0
aF327.537693399
aF450.442357144
aF679622.0
aF4.3e-05
aa(lp478
F35001.0
aF327.929812514
aF373.25693307
aF556678.0
aF3.7e-05
aa(lp479
F48003.0
aF398.962651077
aF443.958242671
aF13004.0
aF5.3e-05
aa(lp480
F48165.0
aF399.715693544
aF433.834784654
aF14467.0
aF3.6e-05
aa(lp481
F48135.0
aF400.114078595
aF454.214530418
aF121123.0
aF3.6e-05
aa(lp482
F48441.0
aF452.655579113
aF447.049115783
aF126555.0
aF3.8e-05
aaa(lp483
(lp484
F45079.0
aF816.541641816
aF385.156707247
aF320677.0
aF5.4e-05
aa(lp485
F45063.0
aF810.799412401
aF389.504491524
aF216014.0
aF4.8e-05
aa(lp486
F45075.0
aF821.306283599
aF398.701875354
aF91582.0
aF3.8e-05
aa(lp487
F45003.0
aF804.805415327
aF398.777010123
aF142552.0
aF4.8e-05
aa(lp488
F45011.0
aF809.42113137
aF404.786925325
aF23478.0
aF3.7e-05
aa(lp489
F45015.0
aF838.39849853
aF401.668889671
aF142651.0
aF3.8e-05
aa(lp490
F45019.0
aF839.98099889
aF409.017008861
aF309969.0
aF3.6e-05
aa(lp491
F45035.0
aF829.781033821
aF405.80958837
aF96413.0
aF3.8e-05
aa(lp492
F13031.0
aF806.418404311
aF425.568824505
aF55983.0
aF3.6e-05
aa(lp493
F13279.0
aF796.139857924
aF433.376558948
aF26067.0
aF3.6e-05
aa(lp494
F13051.0
aF820.13854368
aF433.031383519
aF232048.0
aF4.2e-05
aa(lp495
F13179.0
aF814.054225307
aF438.06335735
aF61610.0
aF3.6e-05
aa(lp496
F1121.0
aF718.485365885
aF413.521338651
aF80321.0
aF4.9e-05
aa(lp497
F1027.0
aF724.378326589
aF415.259972822
aF14254.0
aF3.7e-05
aa(lp498
F1055.0
aF719.112287909
aF398.290991634
aF103459.0
aF4.9e-05
aa(lp499
F1115.0
aF714.563978269
aF406.272136377
aF64742.0
aF4.7e-05
aa(lp500
F1015.0
aF723.907941153
aF403.837487318
aF112249.0
aF5.6e-05
aa(lp501
F1029.0
aF729.475792575
aF405.900762486
aF14123.0
aF4e-05
aa(lp502
F13149.0
aF738.483593606
aF413.410172843
aF11012.0
aF4.2e-05
aa(lp503
F1111.0
aF732.23949364
aF414.266944749
aF22380.0
aF3.8e-05
aa(lp504
F13199.0
aF747.865232047
aF418.364464233
aF22534.0
aF4.1e-05
aa(lp505
F13285.0
aF741.206792819
aF419.291408746
aF58779.0
aF4.7e-05
aa(lp506
F13145.0
aF744.110672367
aF425.903822194
aF23695.0
aF4.3e-05
aa(lp507
F1017.0
aF734.546153087
aF422.891246959
aF36583.0
aF4.2e-05
aa(lp508
F1081.0
aF736.280761314
aF430.281309969
aF115092.0
aF5e-05
aa(lp509
F1073.0
aF704.191210749
aF411.014665198
aF662047.0
aF7.3e-05
aa(lp510
F1117.0
aF709.193528999
aF417.394467797
aF143293.0
aF5.6e-05
aa(lp511
F1125.0
aF692.900099393
aF417.773844647
aF164875.0
aF5.4e-05
aa(lp512
F1007.0
aF700.56183413
aF424.30674234
aF20826.0
aF4.1e-05
aa(lp513
F1123.0
aF726.786957626
aF425.581067716
aF41475.0
aF4e-05
aa(lp514
F1037.0
aF718.14032411
aF424.013010057
aF12202.0
aF3.9e-05
aa(lp515
F1051.0
aF720.429941471
aF431.932714339
aF65874.0
aF4.2e-05
aa(lp516
F1021.0
aF709.066138081
aF427.045616189
aF39593.0
aF4e-05
aa(lp517
F1001.0
aF711.102310642
aF434.092145399
aF43671.0
aF4.5e-05
aa(lp518
F1105.0
aF698.05262265
aF433.450950914
aF11861.0
aF3.8e-05
aa(lp519
F1047.0
aF702.54948917
aF439.147483829
aF46365.0
aF4.1e-05
aa(lp520
F1101.0
aF720.281573781
aF440.436162917
aF223510.0
aF5.7e-05
aa(lp521
F1085.0
aF711.782108762
aF442.95668936
aF13473.0
aF3.6e-05
aa(lp522
F13293.0
aF755.560548489
aF421.408162684
aF27597.0
aF4.3e-05
aa(lp523
F13263.0
aF751.627314742
aF425.750965035
aF6498.0
aF3.8e-05
aa(lp524
F13269.0
aF757.656963169
aF428.635969328
aF8815.0
aF3.6e-05
aa(lp525
F13197.0
aF752.890938665
aF433.846249589
aF7144.0
aF3.6e-05
aa(lp526
F13249.0
aF756.886831935
aF435.010980478
aF3766.0
aF3.6e-05
aa(lp527
F13215.0
aF745.265661102
aF430.987078939
aF186291.0
aF5.9e-05
aa(lp528
F13053.0
aF747.746751522
aF434.353905255
aF14882.0
aF3.9e-05
aa(lp529
F1113.0
aF740.385154867
aF436.939588695
aF49756.0
aF5.6e-05
aa(lp530
F13307.0
aF752.891097575
aF440.510086118
aF2390.0
aF3.6e-05
aa(lp531
F13259.0
aF747.745864563
aF440.998656284
aF5252.0
aF3.7e-05
aa(lp532
F13239.0
aF744.388335588
aF446.19031086
aF2598.0
aF3.9e-05
aa(lp533
F13243.0
aF750.011961131
aF448.029845966
aF7791.0
aF3.6e-05
aa(lp534
F13081.0
aF768.507716301
aF441.717317697
aF21996.0
aF4e-05
aa(lp535
F13261.0
aF760.031179214
aF440.338199095
aF33200.0
aF4e-05
aa(lp536
F13177.0
aF761.806645488
aF445.974238177
aF24757.0
aF4.3e-05
aa(lp537
F13273.0
aF755.838261464
aF446.996681063
aF10970.0
aF3.8e-05
aa(lp538
F13095.0
aF761.086378978
aF451.967184234
aF96065.0
aF4.9e-05
aa(lp539
F13007.0
aF757.447808663
aF457.644935531
aF4074.0
aF4.1e-05
aa(lp540
F13205.0
aF762.322014015
aF459.15792811
aF23932.0
aF4e-05
aa(lp541
F1087.0
aF729.976905092
aF435.616681168
aF24105.0
aF4.4e-05
aa(lp542
F1011.0
aF730.528197664
aF442.487321425
aF11714.0
aF4.4e-05
aa(lp543
F1005.0
aF737.208936942
aF447.146145861
aF29038.0
aF4e-05
aa(lp544
F1109.0
aF726.562430436
aF449.424069506
aF29605.0
aF3.8e-05
aa(lp545
F1045.0
aF733.967850833
aF457.849623249
aF49129.0
aF3.9e-05
aa(lp546
F1031.0
aF726.661721748
aF459.039231303
aF43615.0
aF3.8e-05
aa(lp547
F1039.0
aF717.962710784
aF463.38408665
aF37631.0
aF3.7e-05
aa(lp548
F12133.0
aF734.569355779
aF476.850732839
aF20973.0
aF3.6e-05
aa(lp549
F12005.0
aF737.145880464
aF484.257917437
aF148217.0
aF3.8e-05
aa(lp550
F1069.0
aF740.09731366
aF463.241137095
aF88787.0
aF4e-05
aa(lp551
F12063.0
aF743.171420811
aF471.505245433
aF46755.0
aF3.7e-05
aa(lp552
F1061.0
aF730.413538241
aF465.838757711
aF25764.0
aF3.8e-05
aa(lp553
F12059.0
aF731.745872051
aF471.103540235
aF18564.0
aF3.6e-05
aa(lp554
F12131.0
aF725.164577716
aF476.802492898
aF40601.0
aF3.6e-05
aa(lp555
F12091.0
aF716.424206517
aF476.808362798
aF170498.0
aF4.1e-05
aa(lp556
F13253.0
aF750.013671002
aF467.487183921
aF9369.0
aF3.6e-05
aa(lp557
F13087.0
aF755.693541123
aF468.194002931
aF28240.0
aF4.9e-05
aa(lp558
F12039.0
aF756.170243824
aF474.818107923
aF45087.0
aF4.4e-05
aa(lp559
F12013.0
aF744.953011961
aF480.106011385
aF13017.0
aF3.9e-05
aa(lp560
F12077.0
aF752.187471283
aF483.435028451
aF7021.0
aF4.2e-05
aa(lp561
F12073.0
aF762.463896365
aF477.365342219
aF239452.0
aF6.1e-05
aa(lp562
F12129.0
aF761.574987016
aF483.969184643
aF22863.0
aF4.5e-05
aa(lp563
F13017.0
aF779.750405452
aF444.290123574
aF17484.0
aF4e-05
aa(lp564
F13069.0
aF787.786151364
aF447.808788512
aF37413.0
aF3.9e-05
aa(lp565
F13277.0
aF774.957529641
aF452.106288163
aF38407.0
aF3.9e-05
aa(lp566
F13019.0
aF781.322284489
aF455.836385968
aF16235.0
aF3.6e-05
aa(lp567
F13075.0
aF777.521341358
aF458.541546068
aF15771.0
aF3.6e-05
aa(lp568
F13071.0
aF770.859041905
aF458.550669173
aF42053.0
aF4e-05
aa(lp569
F13173.0
aF785.4599713
aF460.649755944
aF7241.0
aF3.6e-05
aa(lp570
F13185.0
aF781.933977571
aF465.598259648
aF92115.0
aF4.3e-05
aa(lp571
F13101.0
aF790.44296002
aF467.750832727
aF3754.0
aF3.6e-05
aa(lp572
F13275.0
aF768.884153625
aF466.608446685
aF42737.0
aF5.5e-05
aa(lp573
F13131.0
aF762.692249057
aF467.244349517
aF23659.0
aF3.9e-05
aa(lp574
F13027.0
aF775.900380661
aF466.704203449
aF16450.0
aF4e-05
aa(lp575
F12079.0
aF778.851036068
aF475.489418068
aF18733.0
aF3.7e-05
aa(lp576
F12065.0
aF770.707334208
aF476.851119419
aF12902.0
aF4.7e-05
aa(lp577
F47001.0
aF748.365146219
aF345.798550492
aF71330.0
aF4e-05
aa(lp578
F47093.0
aF753.012743594
aF348.235180569
aF382032.0
aF5.6e-05
aa(lp579
F47145.0
aF743.121217788
aF352.673984685
aF51910.0
aF3.6e-05
aa(lp580
F47105.0
aF746.645804702
aF355.093875973
aF39086.0
aF4.2e-05
aa(lp581
F47009.0
aF754.577599188
aF355.288058007
aF105823.0
aF4e-05
aa(lp582
F47107.0
aF742.452861639
aF362.881178959
aF49015.0
aF3.7e-05
aa(lp583
F47011.0
aF738.546369194
aF369.773213374
aF87965.0
aF4.2e-05
aa(lp584
F47065.0
aF732.643747577
aF370.017730905
aF307896.0
aF6.1e-05
aa(lp585
F13047.0
aF734.388362226
aF375.991769202
aF53282.0
aF5e-05
aa(lp586
F13313.0
aF737.308367745
aF378.040993858
aF83525.0
aF5.6e-05
aa(lp587
F13213.0
aF741.701884128
aF377.95087837
aF36506.0
aF4.2e-05
aa(lp588
F13083.0
aF727.429368594
aF378.372146475
aF15154.0
aF4e-05
aa(lp589
F13295.0
aF731.703883397
aF380.217410319
aF61053.0
aF5.4e-05
aa(lp590
F1071.0
aF718.185034982
aF380.767991831
aF53926.0
aF3.7e-05
aa(lp591
F1049.0
aF722.977700224
aF387.203348057
aF64452.0
aF3.7e-05
aa(lp592
F1095.0
aF713.174556494
aF390.627018201
aF82231.0
aF3.9e-05
aa(lp593
F13055.0
aF731.384252393
aF386.564501528
aF25470.0
aF4.3e-05
aa(lp594
F13115.0
aF734.580792996
aF390.450110664
aF90565.0
aF5.2e-05
aa(lp595
F1019.0
aF727.245817908
aF393.49001453
aF23988.0
aF4e-05
aa(lp596
F45045.0
aF785.676714035
aF369.542097768
aF379616.0
aF5.2e-05
aa(lp597
F45077.0
aF779.473178281
aF371.000252662
aF110757.0
aF4.3e-05
aa(lp598
F45007.0
aF782.226804679
aF379.132979851
aF165740.0
aF4.6e-05
aa(lp599
F45073.0
aF773.586504242
aF374.276248938
aF66215.0
aF3.9e-05
aa(lp600
F13137.0
aF765.067546306
aF378.62511758
aF35902.0
aF3.6e-05
aa(lp601
F13257.0
aF769.84658344
aF379.970262555
aF25435.0
aF4.1e-05
aa(lp602
F13119.0
aF771.654824642
aF383.752245557
aF20285.0
aF3.8e-05
aa(lp603
F13011.0
aF766.986968802
aF385.299263609
aF14422.0
aF3.7e-05
aa(lp604
F13147.0
aF776.846802176
aF383.62373106
aF22997.0
aF3.9e-05
aa(lp605
F13105.0
aF780.275583542
aF388.822340524
aF20511.0
aF4e-05
aa(lp606
F13195.0
aF773.093830381
aF389.510556648
aF25730.0
aF4.3e-05
aa(lp607
F13221.0
aF776.332968175
aF394.72850106
aF12635.0
aF4.1e-05
aa(lp608
F45087.0
aF800.989220628
aF372.332884446
aF29881.0
aF4.1e-05
aa(lp609
F45059.0
aF794.421376879
aF377.846648844
aF69567.0
aF3.9e-05
aa(lp610
F45071.0
aF802.478543541
aF381.438769113
aF36108.0
aF3.8e-05
aa(lp611
F45001.0
aF786.786101128
aF385.106331902
aF26167.0
aF3.9e-05
aa(lp612
F45047.0
aF792.953312377
aF385.987943184
aF66271.0
aF4e-05
aa(lp613
F45065.0
aF791.152645445
aF392.788880658
aF9958.0
aF3.7e-05
aa(lp614
F13181.0
aF788.271710396
aF395.099211986
aF8348.0
aF3.8e-05
aa(lp615
F45037.0
aF797.688614435
aF394.375502964
aF24595.0
aF4.1e-05
aa(lp616
F13139.0
aF760.473525224
aF386.716554089
aF139277.0
aF4.4e-05
aa(lp617
F13085.0
aF753.748093531
aF384.375678447
aF15999.0
aF3.7e-05
aa(lp618
F13117.0
aF755.145102581
aF389.478397813
aF98407.0
aF5.1e-05
aa(lp619
F13227.0
aF748.174862032
aF384.686820652
aF22983.0
aF3.7e-05
aa(lp620
F13057.0
aF748.412720226
aF389.846908157
aF141903.0
aF5.3e-05
aa(lp621
F13129.0
aF740.472181415
aF384.60635928
aF44104.0
aF5e-05
aa(lp622
F13015.0
aF741.560012096
aF390.864452051
aF76019.0
aF4.8e-05
aa(lp623
F13067.0
aF747.238620236
aF397.293799252
aF607751.0
aF6.4e-05
aa(lp624
F13121.0
aF750.160287596
aF399.907752014
aF816006.0
aF7e-05
aa(lp625
F13223.0
aF741.778484027
aF398.177004976
aF81678.0
aF4.8e-05
aa(lp626
F13097.0
aF744.596506113
aF402.962208469
aF92174.0
aF5.3e-05
aa(lp627
F13143.0
aF735.485677457
aF401.954275737
aF25690.0
aF4e-05
aa(lp628
F13233.0
aF735.677095944
aF397.061262789
aF38127.0
aF4.3e-05
aa(lp629
F13045.0
aF738.792024777
aF406.300529008
aF87268.0
aF4.6e-05
aa(lp630
F13157.0
aF765.910334722
aF390.451062561
aF41589.0
aF4.2e-05
aa(lp631
F13013.0
aF763.778282645
aF393.625933437
aF46144.0
aF4.7e-05
aa(lp632
F13059.0
aF770.365599785
aF394.047543369
aF101489.0
aF5.3e-05
aa(lp633
F13219.0
aF769.191246041
aF396.756414858
aF26225.0
aF4.7e-05
aa(lp634
F13135.0
aF758.038826857
aF395.110327675
aF588448.0
aF6.3e-05
aa(lp635
F13089.0
aF754.465443436
aF400.059456026
aF665865.0
aF6.8e-05
aa(lp636
F13297.0
aF763.860443745
aF398.939532724
aF60687.0
aF5e-05
aa(lp637
F13247.0
aF758.37864157
aF402.49780372
aF70111.0
aF5.6e-05
aa(lp638
F13217.0
aF762.124521207
aF404.381839078
aF62001.0
aF5.2e-05
aa(lp639
F13151.0
aF756.589546538
aF407.288873768
aF119341.0
aF5.6e-05
aa(lp640
F13063.0
aF752.853876848
aF406.722877803
aF236517.0
aF6.6e-05
aa(lp641
F13113.0
aF750.29432181
aF409.288659145
aF91263.0
aF5.1e-05
aa(lp642
F13077.0
aF745.613117606
aF411.392480996
aF89215.0
aF4.7e-05
aa(lp643
F13159.0
aF766.140054893
aF409.601457563
aF11426.0
aF4.2e-05
aa(lp644
F13035.0
aF761.01318679
aF410.845123799
aF19522.0
aF4.3e-05
aa(lp645
F13255.0
aF754.429031747
aF412.402694941
aF58417.0
aF4.9e-05
aa(lp646
F13231.0
aF753.370012034
aF416.541417328
aF13688.0
aF4e-05
aa(lp647
F13171.0
aF758.133461952
aF416.278655639
aF15912.0
aF4.1e-05
aa(lp648
F13207.0
aF762.284414419
aF417.299224077
aF21757.0
aF4.1e-05
aa(lp649
F13317.0
aF783.03635288
aF396.469792854
aF10687.0
aF3.8e-05
aa(lp650
F13265.0
aF780.693340971
aF401.462175539
aF2077.0
aF4e-05
aa(lp651
F13133.0
aF775.051262688
aF402.079463103
aF14406.0
aF4.1e-05
aa(lp652
F13211.0
aF769.074348529
aF402.524960916
aF15457.0
aF4.4e-05
aa(lp653
F13237.0
aF772.201162902
aF408.635716293
aF18812.0
aF4.1e-05
aa(lp654
F13141.0
aF779.263484632
aF409.089196677
aF10076.0
aF3.8e-05
aa(lp655
F13009.0
aF775.692121613
aF414.185623866
aF44700.0
aF4.4e-05
aa(lp656
F13073.0
aF792.804322285
aF400.662049665
aF89288.0
aF5e-05
aa(lp657
F13245.0
aF796.799727342
aF404.391349655
aF199775.0
aF5.9e-05
aa(lp658
F13125.0
aF787.265198953
aF408.657976938
aF2556.0
aF3.7e-05
aa(lp659
F13189.0
aF788.807317565
aF402.571191412
aF21231.0
aF4.2e-05
aa(lp660
F13301.0
aF785.884453166
aF404.882829165
aF6336.0
aF3.7e-05
aa(lp661
F13163.0
aF791.19287045
aF412.328954025
aF17266.0
aF3.6e-05
aa(lp662
F13303.0
aF784.330945599
aF415.171918905
aF21176.0
aF3.7e-05
aa(lp663
F13033.0
aF799.402251953
aF411.060416941
aF22243.0
aF3.6e-05
aa(lp664
F13169.0
aF769.305317189
aF415.858041197
aF23639.0
aF4.5e-05
aa(lp665
F13021.0
aF767.744846588
aF421.175433164
aF153887.0
aF5.4e-05
aa(lp666
F13319.0
aF777.645017273
aF420.08815355
aF10220.0
aF3.9e-05
aa(lp667
F13289.0
aF773.11917534
aF423.815315401
aF10590.0
aF4.1e-05
aa(lp668
F13079.0
aF762.585439842
aF424.288845903
aF12495.0
aF4e-05
aa(lp669
F13225.0
aF765.478182931
aF427.525753704
aF23668.0
aF4e-05
aa(lp670
F13153.0
aF768.866056624
aF429.26170891
aF110765.0
aF4.6e-05
aa(lp671
F13175.0
aF783.54613439
aF427.368061214
aF44874.0
aF4e-05
aa(lp672
F13023.0
aF776.030523078
aF429.060330496
aF11666.0
aF3.6e-05
aa(lp673
F13235.0
aF773.738991478
aF434.127237887
aF9588.0
aF3.6e-05
aa(lp674
F47053.0
aF660.602484901
aF357.318624524
aF48152.0
aF4.6e-05
aa(lp675
F47077.0
aF671.533480659
aF364.785381273
aF25522.0
aF3.6e-05
aa(lp676
F47113.0
aF662.818991926
aF366.099870575
aF91837.0
aF4.3e-05
aa(lp677
F21047.0
aF685.434127879
aF334.213087394
aF72265.0
aF3.7e-05
aa(lp678
F21145.0
aF662.70624438
aF332.258002864
aF65514.0
aF3.9e-05
aa(lp679
F21157.0
aF670.297483472
aF336.291155927
aF30125.0
aF3.6e-05
aa(lp680
F21035.0
aF671.620601013
aF341.928243786
aF34177.0
aF3.7e-05
aa(lp681
F47079.0
aF672.029883673
aF348.661839878
aF31115.0
aF3.8e-05
aa(lp682
F21227.0
aF705.154099119
aF330.120445066
aF92522.0
aF4.3e-05
aa(lp683
F47125.0
aF688.507322204
aF343.162806406
aF134768.0
aF4.4e-05
aa(lp684
F47021.0
aF694.106115973
aF348.073888042
aF35912.0
aF4e-05
aa(lp685
F47043.0
aF689.714747799
aF351.294454123
aF43156.0
aF4.2e-05
aa(lp686
F47147.0
aF697.962470451
aF341.500402666
aF54433.0
aF3.8e-05
aa(lp687
F47165.0
aF705.571676152
aF342.569345394
aF130449.0
aF4.6e-05
aa(lp688
F47189.0
aF709.432863665
aF349.366493653
aF88809.0
aF4.1e-05
aa(lp689
F47149.0
aF707.710145119
aF356.803460768
aF182023.0
aF5e-05
aa(lp690
F47037.0
aF700.009323976
aF350.107265446
aF569891.0
aF6.1e-05
aa(lp691
F47187.0
aF698.36011379
aF356.438324274
aF126638.0
aF4.5e-05
aa(lp692
F47119.0
aF695.74934167
aF363.25630427
aF69498.0
aF3.8e-05
aa(lp693
F47003.0
aF707.653310314
aF364.214780227
aF37586.0
aF3.7e-05
aa(lp694
F47117.0
aF702.124621211
aF365.8541619
aF26767.0
aF3.6e-05
aa(lp695
F47071.0
aF676.017639573
aF374.935980907
aF25578.0
aF3.8e-05
aa(lp696
F47099.0
aF690.83417232
aF373.181243016
aF39926.0
aF3.6e-05
aa(lp697
F1077.0
aF686.294590746
aF380.947137668
aF87966.0
aF4.6e-05
aa(lp698
F1033.0
aF684.091279484
aF385.661834299
aF54984.0
aF4.6e-05
aa(lp699
F1089.0
aF707.938558006
aF382.483904975
aF276700.0
aF5.1e-05
aa(lp700
F1083.0
aF699.580832555
aF382.011116267
aF65676.0
aF4.2e-05
aa(lp701
F1103.0
aF702.624988295
aF389.788894045
aF111064.0
aF5.3e-05
aa(lp702
F1079.0
aF693.874641618
aF389.291050869
aF34803.0
aF4.1e-05
aa(lp703
F1043.0
aF703.532224111
aF397.229363171
aF77483.0
aF4.1e-05
aa(lp704
F1009.0
aF708.864638478
aF400.653042227
aF51024.0
aF4.2e-05
aa(lp705
F1059.0
aF684.052228983
aF391.998641366
aF31223.0
aF3.9e-05
aa(lp706
F1093.0
aF683.690076451
aF399.314186551
aF31214.0
aF3.9e-05
aa(lp707
F1133.0
aF693.410280556
aF397.910233278
aF24843.0
aF3.8e-05
aa(lp708
F1127.0
aF695.422865001
aF406.085664129
aF70713.0
aF4.5e-05
aa(lp709
F1075.0
aF680.505380484
aF407.82842028
aF15904.0
aF3.9e-05
aa(lp710
F1057.0
aF687.920113121
aF408.649107957
aF18495.0
aF3.9e-05
aa(lp711
F47167.0
aF645.597653077
aF370.395031972
aF51271.0
aF3.7e-05
aa(lp712
F47157.0
aF643.395763039
aF378.031744605
aF897472.0
aF5.5e-05
aa(lp713
F5035.0
aF636.087610177
aF378.37821051
aF50866.0
aF3.9e-05
aa(lp714
F47047.0
aF653.034564421
aF376.77193718
aF28806.0
aF3.6e-05
aa(lp715
F28093.0
aF652.277145734
aF387.230697068
aF34993.0
aF3.8e-05
aa(lp716
F28033.0
aF642.267628251
aF384.839249499
aF107199.0
aF4.6e-05
aa(lp717
F28137.0
aF644.083932408
aF390.057284289
aF25370.0
aF3.8e-05
aa(lp718
F28071.0
aF652.956379177
aF396.45210693
aF38744.0
aF4.1e-05
aa(lp719
F28107.0
aF644.054675289
aF396.681619834
aF34274.0
aF3.7e-05
aa(lp720
F28139.0
aF663.165231424
aF385.784809016
aF20826.0
aF3.6e-05
aa(lp721
F28003.0
aF669.403120711
aF382.80080208
aF34558.0
aF4e-05
aa(lp722
F28141.0
aF675.874680275
aF385.865068967
aF19163.0
aF3.7e-05
aa(lp723
F28117.0
aF670.677194694
aF389.101610368
aF25556.0
aF4e-05
aa(lp724
F28057.0
aF674.528847637
aF396.541300665
aF22770.0
aF3.8e-05
aa(lp725
F28081.0
aF668.445312126
aF397.156999037
aF75755.0
aF4.5e-05
aa(lp726
F28095.0
aF672.979668426
aF405.899310405
aF38014.0
aF4.2e-05
aa(lp727
F28013.0
aF656.503093363
aF405.898614355
aF15069.0
aF3.8e-05
aa(lp728
F28017.0
aF663.809128569
aF406.037077459
aF19440.0
aF3.7e-05
aa(lp729
F28145.0
aF661.997559903
aF392.642942281
aF25362.0
aF3.9e-05
aa(lp730
F28115.0
aF661.915408637
aF398.693439974
aF26726.0
aF3.9e-05
aa(lp731
F28135.0
aF640.513946169
aF406.619828451
aF14903.0
aF3.7e-05
aa(lp732
F28161.0
aF649.132353504
aF404.447671267
aF13051.0
aF3.6e-05
aa(lp733
F28043.0
aF647.649972548
aF410.394464547
aF23263.0
aF4.7e-05
aa(lp734
F28155.0
aF658.0985512
aF413.458569672
aF10294.0
aF3.8e-05
aa(lp735
F28019.0
aF659.173930122
aF420.054154925
aF9758.0
aF3.9e-05
aa(lp736
F28097.0
aF652.180431538
aF416.865351723
aF12189.0
aF3.9e-05
aa(lp737
F28015.0
aF646.169577776
aF417.988104108
aF10769.0
aF3.8e-05
aa(lp738
F28025.0
aF667.692950055
aF411.734435047
aF21979.0
aF4.2e-05
aa(lp739
F28105.0
aF666.238827203
aF417.30602121
aF42902.0
aF4.4e-05
aa(lp740
F28087.0
aF674.418402473
aF415.122758999
aF61586.0
aF4.6e-05
aa(lp741
F28103.0
aF672.69123983
aF424.06682995
aF12548.0
aF3.9e-05
aa(lp742
F1107.0
aF681.51597746
aF419.492278506
aF20949.0
aF4e-05
aa(lp743
F28159.0
aF663.514261498
aF425.274137823
aF20160.0
aF5.9e-05
aa(lp744
F28099.0
aF662.703878088
aF433.203750469
aF28684.0
aF4.3e-05
aa(lp745
F28007.0
aF652.436812204
aF426.921183737
aF19661.0
aF3.9e-05
aa(lp746
F28079.0
aF654.804062986
aF433.748900763
aF20940.0
aF3.6e-05
aa(lp747
F28011.0
aF626.678007927
aF411.072377997
aF40633.0
aF3.7e-05
aa(lp748
F28133.0
aF633.034823847
aF414.841350806
aF34369.0
aF3.7e-05
aa(lp749
F28083.0
aF638.716639418
aF415.848352022
aF37947.0
aF4.1e-05
aa(lp750
F28151.0
aF626.198719269
aF423.016704001
aF62977.0
aF4.3e-05
aa(lp751
F28027.0
aF631.700027283
aF400.68741948
aF30622.0
aF6e-05
aa(lp752
F1063.0
aF685.451950629
aF429.524025294
aF9974.0
aF3.9e-05
aa(lp753
F1065.0
aF691.517351115
aF431.02071473
aF17185.0
aF3.8e-05
aa(lp754
F1119.0
aF681.197260531
aF435.465255817
aF14798.0
aF3.8e-05
aa(lp755
F1091.0
aF689.111823691
aF442.780135295
aF22539.0
aF3.8e-05
aa(lp756
F28069.0
aF671.950373376
aF432.436751394
aF10453.0
aF3.7e-05
aa(lp757
F28075.0
aF672.167227537
aF440.608524349
aF78161.0
aF4.6e-05
aa(lp758
F1131.0
aF699.905697703
aF447.728875269
aF13183.0
aF3.6e-05
aa(lp759
F1025.0
aF690.135425828
aF457.231431451
aF27867.0
aF3.6e-05
aa(lp760
F28101.0
aF663.276500832
aF441.409298936
aF21838.0
aF3.7e-05
aa(lp761
F28123.0
aF654.783177239
aF441.598448207
aF28423.0
aF3.9e-05
aa(lp762
F28061.0
aF663.90603727
aF450.26108839
aF18149.0
aF3.7e-05
aa(lp763
F28129.0
aF656.163566368
aF450.902432528
aF16182.0
aF3.6e-05
aa(lp764
F1023.0
aF681.164763089
aF448.723417337
aF15922.0
aF3.6e-05
aa(lp765
F28023.0
aF672.247451983
aF449.007954081
aF17955.0
aF3.6e-05
aa(lp766
F28153.0
aF672.937954558
aF458.291073997
aF21216.0
aF3.6e-05
aa(lp767
F28067.0
aF663.61576268
aF459.526118398
aF64958.0
aF4.5e-05
aa(lp768
F1053.0
aF704.378463736
aF467.728950494
aF38440.0
aF4e-05
aa(lp769
F12113.0
aF707.994154599
aF477.348307807
aF117743.0
aF4.2e-05
aa(lp770
F12033.0
aF702.029761612
aF479.681887507
aF294410.0
aF4.4e-05
aa(lp771
F1097.0
aF684.031627259
aF477.419999644
aF399843.0
aF4.2e-05
aa(lp772
F1003.0
aF693.728752999
aF478.52220435
aF140415.0
aF3.7e-05
aa(lp773
F28163.0
aF637.680313189
aF434.182193861
aF28149.0
aF3.9e-05
aa(lp774
F28089.0
aF644.644674143
aF437.339606833
aF74674.0
aF4.6e-05
aa(lp775
F28055.0
aF626.42037533
aF436.224308696
aF2274.0
aF4e-05
aa(lp776
F28149.0
aF628.904725177
aF444.115117903
aF49644.0
aF4.2e-05
aa(lp777
F22065.0
aF621.634130464
aF444.667294345
aF13728.0
aF3.8e-05
aa(lp778
F28049.0
aF638.051593606
aF445.785870317
aF250800.0
aF6e-05
aa(lp779
F28121.0
aF647.272159578
aF445.553667274
aF115327.0
aF4.8e-05
aa(lp780
F28127.0
aF647.954429251
aF453.891417712
aF27639.0
aF3.7e-05
aa(lp781
F28021.0
aF628.720625009
aF453.436876482
aF11831.0
aF3.6e-05
aa(lp782
F28029.0
aF637.876274801
aF455.400373018
aF28757.0
aF3.9e-05
aa(lp783
F28085.0
aF638.05182742
aF463.035729759
aF33166.0
aF3.9e-05
aa(lp784
F22077.0
aF616.333029484
aF483.147961091
aF22763.0
aF3.7e-05
aa(lp785
F22033.0
aF627.532921181
aF486.959525017
aF412852.0
aF5.3e-05
aa(lp786
F22121.0
aF622.795050771
aF488.85623181
aF21601.0
aF5.2e-05
aa(lp787
F22047.0
aF621.964681856
aF493.299089267
aF33320.0
aF4.7e-05
aa(lp788
F22055.0
aF607.593184308
aF495.91990953
aF190503.0
aF4.3e-05
aa(lp789
F28001.0
aF620.046176878
aF466.245649879
aF34340.0
aF4.1e-05
aa(lp790
F28073.0
aF657.544716406
aF469.467097793
aF39070.0
aF3.7e-05
aa(lp791
F28035.0
aF662.340841725
aF469.562070989
aF72604.0
aF5e-05
aa(lp792
F28091.0
aF651.496195333
aF469.59224917
aF25595.0
aF3.6e-05
aa(lp793
F28113.0
aF639.867185569
aF471.520087586
aF38940.0
aF4e-05
aa(lp794
F22117.0
aF647.618230277
aF478.308763608
aF43926.0
aF3.8e-05
aa(lp795
F28059.0
aF676.165087735
aF483.666710435
aF131420.0
aF3.7e-05
aa(lp796
F28047.0
aF666.665644721
aF485.036361155
aF189601.0
aF4.1e-05
aa(lp797
F22105.0
aF640.613542278
aF484.186495736
aF100588.0
aF3.7e-05
aa(lp798
F22063.0
aF634.878513505
aF489.247167597
aF91814.0
aF4.1e-05
aa(lp799
F22005.0
aF631.581906678
aF494.948000883
aF76627.0
aF4.3e-05
aa(lp800
F22093.0
aF633.956191451
aF498.696338182
aF21216.0
aF3.6e-05
aa(lp801
F22095.0
aF639.022908787
aF496.564276607
aF43044.0
aF5.1e-05
aa(lp802
F22089.0
aF642.668852038
aF500.050648865
aF48072.0
aF4.4e-05
aa(lp803
F22103.0
aF650.209199504
aF488.923852196
aF191268.0
aF3.9e-05
aa(lp804
F22071.0
aF651.338581076
aF496.465402252
aF484674.0
aF6.4e-05
aa(lp805
F22087.0
aF657.806478018
aF501.443925218
aF67229.0
aF4.2e-05
aa(lp806
F22051.0
aF647.254240096
aF504.485538044
aF455466.0
aF4.6e-05
aaa(lp807
(lp808
F27037.0
aF577.563567483
aF158.555095647
aF355904.0
aF4.1e-05
aa(lp809
F27139.0
aF569.322301754
aF159.700208932
aF89498.0
aF3.6e-05
aa(lp810
F27003.0
aF573.942484199
aF145.118314377
aF298084.0
aF4.6e-05
aa(lp811
F27163.0
aF580.081707153
aF149.862350435
aF201130.0
aF4.1e-05
aa(lp812
F27123.0
aF576.516685202
aF151.219277482
aF511035.0
aF5.6e-05
aa(lp813
F27053.0
aF570.131597541
aF151.403325043
aF1116200.0
aF5.8e-05
aa(lp814
F55035.0
aF606.674204487
aF156.266496427
aF93142.0
aF4.1e-05
aa(lp815
F55063.0
aF610.235848886
aF175.171046671
aF107120.0
aF4.1e-05
aa(lp816
F55009.0
aF661.295442891
aF158.436859333
aF226778.0
aF5.2e-05
aa(lp817
F55087.0
aF653.76289252
aF160.48762926
aF160971.0
aF4.6e-05
aa(lp818
F55139.0
aF651.425748052
aF168.775088822
aF156763.0
aF4.3e-05
aa(lp819
F55117.0
aF663.677750214
aF175.866729352
aF112646.0
aF3.8e-05
aa(lp820
F55089.0
aF664.317997472
aF183.905464302
aF82317.0
aF3.7e-05
aa(lp821
F55131.0
aF659.599222682
aF184.490053638
aF117493.0
aF3.9e-05
aa(lp822
F55079.0
aF664.855000617
aF192.484141264
aF940164.0
aF7.4e-05
aa(lp823
F55133.0
aF659.073603882
aF192.731818115
aF360767.0
aF4.9e-05
aa(lp824
F55025.0
aF640.259029023
aF193.059886956
aF426526.0
aF5.2e-05
aa(lp825
F55105.0
aF646.692264579
aF201.817837534
aF152307.0
aF4.3e-05
aa(lp826
F17201.0
aF645.722085
aF209.852492823
aF278418.0
aF4.8e-05
aa(lp827
F55101.0
aF663.401528025
aF198.912960496
aF188831.0
aF4.1e-05
aa(lp828
F55059.0
aF664.261484501
aF202.645775168
aF149577.0
aF4.2e-05
aa(lp829
F17097.0
aF665.653637641
aF208.578000239
aF644356.0
aF4.3e-05
aa(lp830
F17111.0
aF657.840604228
aF209.092519413
aF260077.0
aF3.7e-05
aa(lp831
F17089.0
aF659.019092906
aF218.026030944
aF404119.0
aF4.3e-05
aa(lp832
F17031.0
aF668.978975824
aF219.400257219
aF5376741.0
aF6.1e-05
aa(lp833
F17043.0
aF664.97964782
aF219.666485923
aF904161.0
aF5.1e-05
aa(lp834
F17197.0
aF667.941183836
aF229.106905905
aF502266.0
aF4.3e-05
aa(lp835
F18141.0
aF696.127999904
aF222.45367622
aF265559.0
aF3.7e-05
aa(lp836
F18127.0
aF683.383403422
aF227.281787422
aF146798.0
aF3.9e-05
aa(lp837
F18089.0
aF677.840033419
aF228.268571284
aF484564.0
aF4.8e-05
aa(lp838
F19013.0
aF591.836020306
aF209.588448378
aF128012.0
aF4.6e-05
aa(lp839
F19113.0
aF604.384170867
aF218.192919491
aF191701.0
aF4.5e-05
aa(lp840
F19103.0
aF605.130226318
aF227.98802556
aF111006.0
aF4.3e-05
aa(lp841
F19163.0
aF621.490118929
aF227.666851619
aF158668.0
aF5.6e-05
aa(lp842
F17161.0
aF623.059973539
aF231.112598464
aF149374.0
aF5e-05
aa(lp843
F19057.0
aF612.882010424
aF244.949915243
aF42351.0
aF5.1e-05
aa(lp844
F19061.0
aF616.711112254
aF208.640652793
aF89143.0
aF3.6e-05
aa(lp845
F19153.0
aF570.801738263
aF228.668095362
aF374601.0
aF5.2e-05
aa(lp846
F17143.0
aF637.683822569
aF246.857253263
aF183433.0
aF4.1e-05
aa(lp847
F17113.0
aF654.496914464
aF252.250882871
aF150433.0
aF3.8e-05
aa(lp848
F17115.0
aF653.280455172
aF267.268076972
aF114706.0
aF4.1e-05
aa(lp849
F17167.0
aF641.60029512
aF270.245953654
aF188951.0
aF3.7e-05
aa(lp850
F17001.0
aF613.933375217
aF266.633159705
aF68277.0
aF3.6e-05
aa(lp851
F29127.0
aF606.586098007
aF271.574363192
aF28289.0
aF4e-05
aa(lp852
F29019.0
aF595.138402494
aF291.17101858
aF135454.0
aF3.7e-05
aa(lp853
F29183.0
aF625.995955203
aF293.938397646
aF283883.0
aF4.7e-05
aa(lp854
F29510.0
aF632.327321169
aF297.184524592
aF348189.0
aF6.9e-05
aa(lp855
F29189.0
aF629.170659449
aF297.571839563
aF1016315.0
aF6e-05
aa(lp856
F17119.0
aF637.850623558
aF292.374209883
aF258941.0
aF4.4e-05
aa(lp857
F17163.0
aF638.48644542
aF300.96228384
aF256082.0
aF4.5e-05
aa(lp858
F29099.0
aF627.873147017
aF306.14887677
aF198099.0
aF4.5e-05
aa(lp859
F29031.0
aF644.470271665
aF326.286242166
aF68693.0
aF3.7e-05
aaa(lp860
(lp861
F19155.0
aF536.654531277
aF237.2118409
aF87704.0
aF4.4e-05
aa(lp862
F31055.0
aF525.799353573
aF238.14275337
aF463585.0
aF6.2e-05
aa(lp863
F31153.0
aF527.065884457
aF242.564882077
aF122595.0
aF4.9e-05
aa(lp864
F31109.0
aF516.78216337
aF250.188023316
aF250291.0
aF6.1e-05
aa(lp865
F19193.0
aF527.892826839
aF212.565325312
aF103877.0
aF3.8e-05
aa(lp866
F29117.0
aF572.597621811
aF273.234640156
aF14558.0
aF3.8e-05
aa(lp867
F29165.0
aF550.397034117
aF282.736074491
aF73781.0
aF4e-05
aa(lp868
F29047.0
aF557.068455539
aF284.718256517
aF184006.0
aF4.3e-05
aa(lp869
F29095.0
aF558.451289477
aF291.559180265
aF654880.0
aF4.6e-05
aa(lp870
F20209.0
aF550.661615218
aF289.397706643
aF157882.0
aF5.1e-05
aa(lp871
F20091.0
aF549.942556013
aF294.526691953
aF451086.0
aF5e-05
aa(lp872
F20177.0
aF533.03247737
aF290.959637823
aF169871.0
aF3.8e-05
aa(lp873
F20045.0
aF541.556573622
aF294.554423043
aF99962.0
aF3.9e-05
aa(lp874
F29105.0
aF591.232277525
aF322.028577505
aF32513.0
aF3.7e-05
aa(lp875
F29077.0
aF577.620172307
aF332.100595839
aF240391.0
aF4e-05
aa(lp876
F29097.0
aF559.285079789
aF333.795952942
aF104686.0
aF3.8e-05
aa(lp877
F20173.0
aF502.059178492
aF322.563937328
aF452869.0
aF5.1e-05
aa(lp878
F40147.0
aF530.646647803
aF345.489344407
aF48996.0
aF3.6e-05
aa(lp879
F40113.0
aF520.983092153
aF347.777781229
aF44437.0
aF3.6e-05
aa(lp880
F40131.0
aF536.516445501
aF353.702667311
aF70641.0
aF3.7e-05
aa(lp881
F40145.0
aF537.697747203
aF362.716629184
aF57491.0
aF3.6e-05
aa(lp882
F40143.0
aF529.254373189
aF359.119882043
aF563299.0
aF5.1e-05
aa(lp883
F40037.0
aF522.178502344
aF364.426549864
aF67367.0
aF3.6e-05
aa(lp884
F40121.0
aF534.015957707
aF386.972736212
aF43953.0
aF5.2e-05
aa(lp885
F5007.0
aF561.281703823
aF354.073660072
aF153406.0
aF3.9e-05
aa(lp886
F5143.0
aF562.191078248
aF362.067165249
aF157715.0
aF4.2e-05
aa(lp887
F40135.0
aF552.152539684
aF373.719148851
aF38972.0
aF3.6e-05
aa(lp888
F5033.0
aF562.099452546
aF371.558981234
aF53247.0
aF3.7e-05
aa(lp889
F5131.0
aF561.617863693
aF380.314497128
aF115071.0
aF4.4e-05
aa(lp890
F40109.0
aF502.392382762
aF372.515797647
aF660448.0
aF4.4e-05
aa(lp891
F40027.0
aF503.531911145
aF380.713787756
aF208016.0
aF3.9e-05
aaa(lp892
(lp893
F53063.0
aF193.0977598
aF52.8138361245
aF417939.0
aF3.8e-05
aa(lp894
F16055.0
aF204.319146418
aF54.3384716831
aF108685.0
aF4.2e-05
aa(lp895
F53011.0
aF104.00046468
aF74.0182527309
aF345238.0
aF6.4e-05
aa(lp896
F41051.0
aF103.293707198
aF79.5194104381
aF660486.0
aF9.3e-05
aa(lp897
F41067.0
aF92.2254623376
aF76.2593957841
aF445342.0
aF7.3e-05
aa(lp898
F41071.0
aF86.7548969804
aF82.5252224071
aF84992.0
aF3.6e-05
aa(lp899
F41005.0
aF103.421444616
aF88.318590492
aF338391.0
aF6.6e-05
aa(lp900
F41047.0
aF97.399304684
aF93.4988892144
aF284834.0
aF4.8e-05
aa(lp901
F41043.0
aF94.448753801
aF102.939074836
aF103069.0
aF3.9e-05
aa(lp902
F41039.0
aF84.5347857915
aF112.892676143
aF322959.0
aF4e-05
aa(lp903
F41017.0
aF114.462522906
aF122.741695237
aF115367.0
aF3.6e-05
aa(lp904
F41035.0
aF98.0295884063
aF146.196833673
aF63775.0
aF3.7e-05
aa(lp905
F41033.0
aF64.0383429578
aF145.197823652
aF75726.0
aF3.7e-05
aa(lp906
F41029.0
aF78.4141193387
aF147.629027207
aF181269.0
aF5.1e-05
aa(lp907
F53035.0
aF112.213341858
aF32.211854091
aF231969.0
aF3.9e-05
aa(lp908
F53061.0
aF129.599857207
aF27.0635601294
aF606024.0
aF4.3e-05
aa(lp909
F53033.0
aF125.27486023
aF39.1497730391
aF1737034.0
aF5.8e-05
aa(lp910
F53053.0
aF117.109712855
aF47.267192196
aF700820.0
aF4.5e-05
aa(lp911
F53067.0
aF106.367155716
aF47.7138751339
aF207355.0
aF3.7e-05
aaa.